0x00007fb0      4336                   sre (0x36,x)
0x00007fb2      3420                   nop 0x20,x
0x00007fb4      4341                   sre (0x41,x)
0x00007fb6      52                     hlt
0x00007fb7      5452                   nop 0x52,x
0x00007fb9      4944                   eor #0x44
0x00007fbb      4745                   sre 0x45
0x00007fbd      202020                 jsr 0x2020
0x00007fc0      00                     brk
0x00007fc1      00                     brk
0x00007fc2      00                     brk
0x00007fc3      40                     rti
0x00007fc4      0100                   ora (0x00,x)
0x00007fc6      00                     brk
0x00007fc7      00                     brk
0x00007fc8      00                     brk
0x00007fc9      0100                   ora (0x00,x)
0x00007fcb      00                     brk
0x00007fcc      00                     brk
0x00007fcd      00                     brk
0x00007fce      00                     brk
0x00007fcf      00                     brk
0x00007fd0      5061                   bvc 0x008033
0x00007fd2      632d                   rra (0x2d,x)
0x00007fd4      4d616e                 eor 0x6e61
0x00007fd7      00                     brk
0x00007fd8      00                     brk
0x00007fd9      00                     brk
0x00007fda      00                     brk
0x00007fdb      00                     brk
0x00007fdc      00                     brk
0x00007fdd      00                     brk
0x00007fde      00                     brk
0x00007fdf      00                     brk
0x00007fe0      00                     brk
0x00007fe1      00                     brk
0x00007fe2      00                     brk
0x00007fe3      00                     brk
0x00007fe4      00                     brk
0x00007fe5      00                     brk
0x00007fe6      00                     brk
0x00007fe7      00                     brk
0x00007fe8      00                     brk
0x00007fe9      00                     brk
0x00007fea      00                     brk
0x00007feb      00                     brk
0x00007fec      00                     brk
0x00007fed      00                     brk
0x00007fee      00                     brk
0x00007fef      00                     brk
0x00007ff0      4348                   sre (0x48,x)
0x00007ff2      4950                   eor #0x50
0x00007ff4      00                     brk
0x00007ff5      00                     brk
0x00007ff6      201000                 jsr 0x0010
0x00007ff9      00                     brk
0x00007ffa      00                     brk
0x00007ffb      00                     brk
0x00007ffc      8000                   nop #0x00
0x00007ffe      200094                 jsr 0x9400                     ; fcn.calculate_score_maybe+0x17
0x00008001      83a0                   sax (0xa0,x)
0x00008003      83c3                   sax (0xc3,x)
0x00008005      c2cd                   nop #0xcd
0x00008007      38                     sec
0x00008008      3002                   bmi 0x00800c
0x0000800a      bb5a30                 lae 0x305a,y
0x0000800d      5fee3d                 sre 0x3dee,x
0x00008010      a8                     tay
0x00008011      c0c0                   cpy #0xc0
0x00008013      8057                   nop #0x57
0x00008015      8057                   nop #0x57
0x00008017      ee5740                 inc 0x4057
0x0000801a      01c4                   ora (0xc4,x)
0x0000801c      0440                   nop 0x40
0x0000801e      19caca                 ora 0xcaca,y
0x00008021      4a                     lsr a
0x00008022      1940c4                 ora 0xc440,y
0x00008025      0401                   nop 0x01
0x00008027      c01e                   cpy #0x1e
0x00008029      40                     rti
0x0000802a      1b4440                 slo 0x4044,y
0x0000802d      194a19                 ora 0x194a,y
0x00008030      c01e                   cpy #0x1e
0x00008032      40                     rti
0x00008033      054a                   ora 0x4a
0x00008035      40                     rti
0x00008036      0144                   ora (0x44,x)
0x00008038      01c0                   ora (0xc0,x)
0x0000803a      2ec080                 rol 0x80c0
0x0000803d      1e401e                 asl 0x1e40,x
0x00008040      40                     rti
0x00008041      c4c4                   cpy 0xc4
0x00008043      40                     rti
0x00008044      1ec000                 asl 0x00c0,x
0x00008047      ca                     dex
0x00008048      ca                     dex
0x00008049      c000                   cpy #0x00
0x0000804b      1ec040                 asl 0x40c0,x
0x0000804e      c1c1                   cmp (0xc1,x)
0x00008050      c0c1                   cpy #0xc1
0x00008052      c1d9                   cmp (0xd9,x)
0x00008054      d9401e                 cmp 0x1e40,y
0x00008057      40                     rti
0x00008058      1b4440                 slo 0x4044,y
0x0000805b      1e4005                 asl 0x0540,x
0x0000805e      4a                     lsr a
0x0000805f      441b                   nop 0x1b
0x00008061      40                     rti
0x00008062      1e404a                 asl 0x4a40,x
0x00008065      0540                   ora 0x40
0x00008067      1e404a                 asl 0x4a40,x
0x0000806a      0540                   ora 0x40
0x0000806c      054a                   ora 0x4a
0x0000806e      441b                   nop 0x1b
0x00008070      40                     rti
0x00008071      1b4417                 slo 0x1744,y
0x00008074      2e2f09                 rol 0x092f
0x00008077      2f2e17                 rla 0x172e
0x0000807a      800d                   nop #0x0d
0x0000807c      190005                 ora 0x0500,y
0x0000807f      ca                     dex
0x00008080      0500                   ora 0x00
0x00008082      190dc0                 ora 0xc00d,y
0x00008085      1d0100                 ora 0x0001,x
0x00008088      1bc41b                 slo 0x1bc4,y
0x0000808b      00                     brk
0x0000808c      011d                   ora (0x1d,x)
0x0000808e      c040                   cpy #0x40
0x00008090      d9d9c0                 cmp 0xc0d9,y
0x00008093      00                     brk
0x00008094      2f572f                 rla 0x2f57
0x00008097      5700                   sre 0x00,x
0x00008099      00                     brk
0x0000809a      2b57                   anc #0x57
0x0000809c      6b17                   arr #0x17
0x0000809e      40                     rti
0x0000809f      2e2b2e                 rol 0x2e2b
0x000080a2      6b2e                   arr #0x2e
0x000080a4      40                     rti
0x000080a5      2503                   and 0x03
0x000080a7      8928                   nop #0x28
0x000080a9      40                     rti
0x000080aa      2b2d                   anc #0x2d
0x000080ac      492e                   eor #0x2e
0x000080ae      0940                   ora #0x40
0x000080b0      2fd72f                 rla 0x2fd7
0x000080b3      40                     rti
0x000080b4      252b                   and 0x2b
0x000080b6      572b                   sre 0x2b,x
0x000080b8      2540                   and 0x40
0x000080ba      6b2f                   arr #0x2f
0x000080bc      8940                   nop #0x40
0x000080be      6c2600                 jmp (0x0026)
0x000080c1      4340                   sre (0x40,x)
0x000080c3      a500                   lda 0x00
0x000080c5      6540                   adc 0x40
0x000080c7      2f6b2c                 rla 0x2c6b
0x000080ca      2b2f                   anc #0x2f
0x000080cc      40                     rti
0x000080cd      2b00                   anc #0x00
0x000080cf      03ac                   slo (0xac,x)
0x000080d1      40                     rti
0x000080d2      172e                   slo 0x2e,x
0x000080d4      662e                   ror 0x2e
0x000080d6      2640                   rol 0x40
0x000080d8      49e8                   eor #0xe8
0x000080da      40                     rti
0x000080db      0328                   slo (0x28,x)
0x000080dd      2e1543                 rol 0x4315
0x000080e0      40                     rti
0x000080e1      e8                     inx
0x000080e2      68                     pla
0x000080e3      40                     rti
0x000080e4      2d002b                 and 0x2b00
0x000080e7      40                     rti
0x000080e8      2d80c3                 and 0xc380
0x000080eb      802e                   nop #0x2e
0x000080ed      e62e                   inc 0x2e
0x000080ef      40                     rti
0x000080f0      09a8                   ora #0xa8
0x000080f2      2680                   rol 0x80
0x000080f4      d72b                   dcp 0x2b,x
0x000080f6      2540                   and 0x40
0x000080f8      2e2b2e                 rol 0x2e2b
0x000080fb      6b2e                   arr #0x2e
0x000080fd      40                     rti
0x000080fe      28                     plp
0x000080ff      c928                   cmp #0x28
0x00008101      40                     rti
0x00008102      2d492d                 and 0x2d49
0x00008105      1709                   slo 0x09,x
0x00008107      40                     rti
0x00008108      0330                   slo (0x30,x)
0x0000810a      9116                   sta (0x16),y
0x0000810c      1114                   ora (0x14),y
0x0000810e      2b14                   anc #0x14
0x00008110      632a                   rra (0x2a,x)
0x00008112      2300                   rla (0x00,x)
0x00008114      0309                   slo (0x09,x)
0x00008116      1113                   ora (0x13),y
0x00008118      1112                   ora (0x12),y
0x0000811a      0702                   slo 0x02
0x0000811c      00                     brk
0x0000811d      2521                   and 0x21
0x0000811f      2961                   and #0x61
0x00008121      1f0042                 slo 0x4200,x
0x00008124      09ef                   ora #0xef
0x00008126      0940                   ora #0x40
0x00008128      25eb                   and 0xeb
0x0000812a      2503                   and 0x03
0x0000812c      07d1                   slo 0xd1
0x0000812e      1107                   ora (0x07),y
0x00008130      00                     brk
0x00008131      1f6169                 slo 0x6961,x
0x00008134      211f                   and (0x1f,x)
0x00008136      4307                   sre (0x07,x)
0x00008138      d107                   cmp (0x07),y
0x0000813a      40                     rti
0x0000813b      1fe11f                 slo 0x1fe1,x
0x0000813e      4307                   sre (0x07,x)
0x00008140      d107                   cmp (0x07),y
0x00008142      40                     rti
0x00008143      1fe11f                 slo 0x1fe1,x
0x00008146      9e4d05                 shx 0x054d,y
0x00008149      439d                   sre (0x9d,x)
0x0000814b      5b1940                 sre 0x4019,y
0x0000814e      9e4d05                 shx 0x054d,y
0x00008151      439d                   sre (0x9d,x)
0x00008153      5b1940                 sre 0x4019,y
0x00008156      0308                   slo (0x08,x)
0x00008158      af1612                 lax 0x1216
0x0000815b      0700                   slo 0x00
0x0000815d      25ab                   and 0xab
0x0000815f      2421                   bit 0x21
0x00008161      1f0706                 slo 0x0607,x
0x00008164      07c3                   slo 0xc3
0x00008166      0321                   slo (0x21,x)
0x00008168      0e2125                 asl 0x2521
0x0000816b      2b25                   anc #0x25
0x0000816d      2b25                   anc #0x25
0x0000816f      00                     brk
0x00008170      03c0                   slo (0xc0,x)
0x00008172      0300                   slo (0x00,x)
0x00008174      25e6                   and 0xe6
0x00008176      262b                   rol 0x2b
0x00008178      00                     brk
0x00008179      2f4003                 rla 0x0340
0x0000817c      00                     brk
0x0000817d      1409                   nop 0x09,x
0x0000817f      00                     brk
0x00008180      2b15                   anc #0x15
0x00008182      6655                   ror 0x55
0x00008184      2500                   and 0x00
0x00008186      2f142f                 rla 0x2f14
0x00008189      40                     rti
0x0000818a      1409                   nop 0x09,x
0x0000818c      00                     brk
0x0000818d      2b03                   anc #0x03
0x0000818f      2695                   rol 0x95
0x00008191      2500                   and 0x00
0x00008193      2f4003                 rla 0x0340
0x00008196      b000                   bcs 0x008198
0x00008198      2b15                   anc #0x15
0x0000819a      2683                   rol 0x83
0x0000819c      40                     rti
0x0000819d      0309                   slo (0x09,x)
0x0000819f      c309                   dcp (0x09,x)
0x000081a1      00                     brk
0x000081a2      03f0                   slo (0xf0,x)
0x000081a4      3026                   bmi 0x0081cc
0x000081a6      00                     brk
0x000081a7      2f2500                 rla 0x0025
0x000081aa      0914                   ora #0x14
0x000081ac      252e                   and 0x2e
0x000081ae      00                     brk
0x000081af      0367                   slo (0x67,x)
0x000081b1      b026                   bcs 0x0081d9
0x000081b3      00                     brk
0x000081b4      2e0003                 rol 0x0300
0x000081b7      0900                   ora #0x00
0x000081b9      252f                   and 0x2f
0x000081bb      00                     brk
0x000081bc      2627                   rol 0x27
0x000081be      7067                   bvs 0x008227
0x000081c0      0300                   slo (0x00,x)
0x000081c2      2e252e                 rol 0x2e25
0x000081c5      40                     rti
0x000081c6      252f                   and 0x2f
0x000081c8      00                     brk
0x000081c9      2670                   rol 0x70
0x000081cb      a703                   lax 0x03
0x000081cd      00                     brk
0x000081ce      25d5                   and 0xd5
0x000081d0      1525                   ora 0x25,x
0x000081d2      00                     brk
0x000081d3      2bf0                   anc #0xf0
0x000081d5      302b                   bmi 0x008202
0x000081d7      00                     brk
0x000081d8      17e6                   slo 0xe6,x
0x000081da      2617                   rol 0x17
0x000081dc      00                     brk
0x000081dd      40                     rti
0x000081de      1e401d                 asl 0x1d40,x
0x000081e1      c11d                   cmp (0x1d,x)
0x000081e3      40                     rti
0x000081e4      1ec01e                 asl 0x1ec0,x
0x000081e7      40                     rti
0x000081e8      0dd90d                 ora 0x0dd9
0x000081eb      40                     rti
0x000081ec      1e40ff                 asl 0xff40,x
0x000081ef      00                     brk
;-- sym.map_data:
0x000081f0      111c                   ora (0x1c),y
0x000081f2      8f0c15                 sax 0x150c
0x000081f5      168f                   asl 0x8f,x
0x000081f7      0c1e20                 nop 0x201e
0x000081fa      00                     brk
0x000081fb      00                     brk
0x000081fc      130f                   slo (0x0f),y
0x000081fe      8f010d                 sax 0x0d01
0x00008201      0f8f01                 slo 0x018f
0x00008204      0d1400                 ora 0x0014
0x00008207      00                     brk
0x00008208      13cf                   slo (0xcf),y
0x0000820a      1382                   slo (0x82),y
0x0000820c      0ec413                 asl 0x13c4
0x0000820f      850e                   sta 0x0e
0x00008211      c41d                   cpy 0x1d
0x00008213      cf1385                 dcp 0x8513
0x00008216      0ec413                 asl 0x13c4
0x00008219      820e                   nop #0x0e
0x0000821b      c41d                   cpy 0x1d
0x0000821d      1400                   nop 0x00,x
0x0000821f      00                     brk
0x00008220      13cf                   slo (0xcf),y
0x00008222      2682                   rol 0x82
0x00008224      10c5                   bpl 0x0081eb
0x00008226      1685                   asl 0x85,x
0x00008228      10c5                   bpl 0x0081ef
0x0000822a      16c5                   asl 0xc5,x
0x0000822c      1685                   asl 0x85,x
0x0000822e      10c5                   bpl 0x0081f5
0x00008230      1682                   asl 0x82,x
0x00008232      10c5                   bpl 0x0081f9
0x00008234      2d1400                 and 0x0014
0x00008237      00                     brk
0x00008238      130f                   slo (0x0f),y
0x0000823a      a101                   lda (0x01,x)
0x0000823c      0d1400                 ora 0x0014
0x0000823f      00                     brk
0x00008240      13cf                   slo (0xcf),y
0x00008242      1a                     nop
0x00008243      820c                   nop #0x0c
0x00008245      08                     php
0x00008246      c13e                   cmp (0x3e,x)
0x00008248      c41a                   cpy 0x1a
0x0000824a      830c                   sax (0x0c,x)
0x0000824c      0709                   slo 0x09
0x0000824e      830c                   sax (0x0c,x)
0x00008250      c8                     iny
0x00008251      13ce                   slo (0xce),y
0x00008253      410a                   eor (0x0a,x)
0x00008255      820c                   nop #0x0c
0x00008257      c8                     iny
0x00008258      1d1400                 ora 0x0014,x
0x0000825b      00                     brk
0x0000825c      130f                   slo (0x0f),y
0x0000825e      8601                   stx 0x01
0x00008260      cd0f85                 cmp 0x850f
0x00008263      010d                   ora (0x0d,x)
0x00008265      0f8501                 slo 0x0185
0x00008268      cd0f86                 cmp 0x860f
0x0000826b      010d                   ora (0x0d,x)
0x0000826d      1400                   nop 0x00,x
0x0000826f      00                     brk
0x00008270      12                     hlt
0x00008271      1d830c                 ora 0x0c83,x
0x00008274      61c4                   adc (0xc4,x)
0x00008276      1d0019                 ora 0x1900,x
0x00008279      830c                   sax (0x0c,x)
0x0000827b      c8                     iny
0x0000827c      06c5                   asl 0xc5
0x0000827e      0a                     asl a
0x0000827f      830c                   sax (0x0c,x)
0x00008281      1a                     nop
0x00008282      c0f1                   cpy #0xf1
0x00008284      0363                   slo (0x63,x)
0x00008286      830c                   sax (0x0c,x)
0x00008288      1f2187                 slo 0x8721,x
0x0000828b      00                     brk
0x0000828c      13cf                   slo (0xcf),y
0x0000828e      1d000f                 ora 0x0f00,x
0x00008291      8d00cd                 sta 0xcd00
0x00008294      0f010d                 slo 0x0d01
0x00008297      1488                   nop 0x88,x
0x00008299      00                     brk
0x0000829a      840c                   sty 0x0c
0x0000829c      62                     hlt
0x0000829d      c516                   cmp 0x16
0x0000829f      10c5                   bpl 0x008266
0x000082a1      0383                   slo (0x83,x)
0x000082a3      0e0b0b                 asl 0x0b0b
0x000082a6      830e                   sax (0x0e,x)
0x000082a8      0400                   nop 0x00
0x000082aa      0610                   asl 0x10
0x000082ac      c516                   cmp 0x16
0x000082ae      6484                   nop 0x84
0x000082b0      0c8a00                 nop 0x008a
0x000082b3      0183                   ora (0x83,x)
0x000082b5      00                     brk
0x000082b6      0d8900                 ora 0x0089
0x000082b9      0f8300                 slo 0x0083
0x000082bc      018a                   ora (0x8a,x)
0x000082be      00                     brk
0x000082bf      840c                   sty 0x0c
0x000082c1      61c4                   adc (0xc4,x)
0x000082c3      13ce                   slo (0xce),y
0x000082c5      40                     rti
0x000082c6      0689                   asl 0x89
0x000082c8      10c5                   bpl 0x00828f
0x000082ca      03ce                   slo (0xce,x)
0x000082cc      4103                   eor (0x03,x)
0x000082ce      6384                   rra (0x84,x)
0x000082d0      0c8800                 nop 0x0088
0x000082d3      13cf                   slo (0xcf),y
0x000082d5      1d000f                 ora 0x0f00,x
0x000082d8      8d00cd                 sta 0xcd00
0x000082db      0f010d                 slo 0x0d01
0x000082de      1487                   nop 0x87,x
0x000082e0      00                     brk
0x000082e1      111c                   ora (0x1c),y
0x000082e3      830c                   sax (0x0c,x)
0x000082e5      62                     hlt
0x000082e6      c516                   cmp 0x16
0x000082e8      10c5                   bpl 0x0082af
0x000082ea      0a                     asl a
0x000082eb      830c                   sax (0x0c,x)
0x000082ed      0709                   slo 0x09
0x000082ef      830c                   sax (0x0c,x)
0x000082f1      c8                     iny
0x000082f2      0610                   asl 0x10
0x000082f4      c516                   cmp 0x16
0x000082f6      6483                   nop 0x83
0x000082f8      0c1e20                 nop 0x201e
0x000082fb      00                     brk
0x000082fc      00                     brk
0x000082fd      130f                   slo (0x0f),y
0x000082ff      8f010d                 sax 0x0d01
0x00008302      0f8f01                 slo 0x018f
0x00008305      0d1400                 ora 0x0014
0x00008308      00                     brk
0x00008309      13cf                   slo (0xcf),y
0x0000830b      1a                     nop
0x0000830c      0c0c15                 nop 0x150c
0x0000830f      c41a                   cpy 0x1a
0x00008311      850c                   sta 0x0c
0x00008313      c8                     iny
0x00008314      16c5                   asl 0xc5,x
0x00008316      1a                     nop
0x00008317      850c                   sta 0x0c
0x00008319      c8                     iny
0x0000831a      1316                   slo (0x16),y
0x0000831c      ccc801                 cpy 0x01c8
0x0000831f      0d1400                 ora 0x0014
0x00008322      00                     brk
0x00008323      130f                   slo (0x0f),y
0x00008325      02                     hlt
0x00008326      8201                   nop #0x01
0x00008328      0d0f89                 ora 0x890f
0x0000832b      0100                   ora (0x00,x)
0x0000832d      00                     brk
0x0000832e      8901                   nop #0x01
0x00008330      0d0f82                 ora 0x820f
0x00008333      0102                   ora (0x02,x)
0x00008335      0d1400                 ora 0x0014
0x00008338      00                     brk
0x00008339      1319                   slo (0x19),y
0x0000833b      ccc8c1                 cpy 0xc1c8
0x0000833e      65c1                   adc 0xc1
0x00008340      3ec41a                 rol 0x1ac4,x
0x00008343      830c                   sax (0x0c,x)
0x00008345      0709                   slo 0x09
0x00008347      830c                   sax (0x0c,x)
0x00008349      c8                     iny
0x0000834a      13ce                   slo (0xce),y
0x0000834c      41c6                   eor (0xc6,x)
0x0000834e      51ca                   eor (0xca),y
0x00008350      cc1a14                 cpy 0x141a
0x00008353      00                     brk
0x00008354      00                     brk
0x00008355      130f                   slo (0x0f),y
0x00008357      8601                   stx 0x01
0x00008359      cd0f85                 cmp 0x850f
0x0000835c      010d                   ora (0x0d,x)
0x0000835e      0f8501                 slo 0x0185
0x00008361      cd0f86                 cmp 0x860f
0x00008364      010d                   ora (0x0d,x)
0x00008366      1400                   nop 0x00,x
0x00008368      00                     brk
0x00008369      13cf                   slo (0xcf),y
0x0000836b      1a                     nop
0x0000836c      840c                   sty 0x0c
0x0000836e      1710                   slo 0x10,x
0x00008370      18                     clc
0x00008371      830c                   sax (0x0c,x)
0x00008373      c8                     iny
0x00008374      16c5                   asl 0xc5,x
0x00008376      1a                     nop
0x00008377      830c                   sax (0x0c,x)
0x00008379      1710                   slo 0x10,x
0x0000837b      18                     clc
0x0000837c      840c                   sty 0x0c
0x0000837e      c8                     iny
0x0000837f      1d1400                 ora 0x0014,x
0x00008382      00                     brk
0x00008383      130f                   slo (0x0f),y
0x00008385      a101                   lda (0x01,x)
0x00008387      0d1400                 ora 0x0014
0x0000838a      00                     brk
0x0000838b      12                     hlt
0x0000838c      1da10c                 ora 0x0ca1,x
0x0000838f      1f21a8                 slo 0xa821,x
0x00008392      00                     brk
0x00008393  ~   ff20a3                 isb 0xa320,x
;-- entrypoint:
0x00008394      20a3fd                 jsr fcn.ioinit
0x00008397      2050fd                 jsr fcn.ramtas
0x0000839a      2015fd                 jsr fcn.restor
0x0000839d      205bff                 jsr fcn.cint                   ; initialize vic
0x000083a0      a900                   lda #0x00
0x000083a2      a2c2                   ldx #0xc2                      ; 194
0x000083a4      9502                   sta 0x02,x                     ; zero out $0002-$00c4
0x000083a6      9dff03                 sta 0x03ff,x                   ; zero out $03ff-$04c1
0x000083a9      ca                     dex
0x000083aa      d0f8                   bne 0x0083a4
0x000083ac      e607                   inc 0x07
0x000083ae      a6a2                   ldx 0xa2                       ; ldx with jiffy clock
0x000083b0      ca                     dex
0x000083b1      860b                   stx 0x0b                       ; store jiffy clock -1 in $000b
0x000083b3      a900                   lda #0x00
0x000083b5      852c                   sta 0x2c
0x000083b7      a940                   lda #0x40
0x000083b9      852d                   sta 0x2d                       ; set 2c and 2d as ptr to ram $4000
0x000083bb      a9ef                   lda #0xef                      ; set 2a and 2b as a pointer to start of map data $81ef
0x000083bd      852a                   sta 0x2a
0x000083bf      a981                   lda #0x81
0x000083c1      852b                   sta 0x2b
0x000083c3      a000                   ldy #0x00
;-- loop.83c5:
0x000083c5      b12a                   lda (0x2a),y                   ; lda with value in `002a+y` y starts at 0.
0x000083c7      8518                   sta 0x18                       ; store this value in $0018
0x000083c9      3002                   bmi 0x0083cd                   ; if negative, skip 1 instruction
0x000083cb      102b                   bpl 0x0083f8                   ; if positive, run the subroutine at $863f
0x000083cd      c9ff                   cmp #0xff                      ; compare to 255
0x000083cf      f030                   beq loop.83c5.end
0x000083d1      2418                   bit 0x18
0x000083d3      7011                   bvs 0x0083e6                   ; if bit 6 of $18 is set, branch to $83e6
0x000083d5      297f                   and #0x7f                      ; clear highest bit
0x000083d7      aa                     tax
0x000083d8      203886                 jsr fcn.inc_ptr_1
0x000083db      203686                 jsr fcn.load_and_inc_ptr1
0x000083de      203f86                 jsr fcn.sta_and_inc_ptr_2
0x000083e1      ca                     dex
0x000083e2      10fa                   bpl 0x0083de
0x000083e4      30df                   bmi loop.83c5
0x000083e6      293f                   and #0x3f                      ; clear two high bits
0x000083e8      203f86                 jsr fcn.sta_and_inc_ptr_2
0x000083eb      203886                 jsr fcn.inc_ptr_1
0x000083ee      204886                 jsr fcn.ptr1_lo_shr_4
0x000083f1      203f86                 jsr fcn.sta_and_inc_ptr_2
0x000083f4      b12a                   lda (0x2a),y
0x000083f6      290f                   and #0x0f                      ; clear upper nibble
0x000083f8      203f86                 jsr fcn.sta_and_inc_ptr_2
0x000083fb      203886                 jsr fcn.inc_ptr_1
0x000083fe      4cc583                 jmp loop.83c5
;-- loop.83c5.end:
0x00008401      a90e                   lda #0x0e                      ; ptr 1 to $9f0e
0x00008403      852a                   sta 0x2a
0x00008405      a99f                   lda #0x9f
0x00008407      852b                   sta 0x2b
0x00008409      a900                   lda #0x00
0x0000840b      852c                   sta 0x2c
0x0000840d      a94c                   lda #0x4c
0x0000840f      852d                   sta 0x2d                       ; ptr 2 to $4c00
0x00008411      a000                   ldy #0x00
0x00008413      a200                   ldx #0x00
;-- loop.8415:
0x00008415      204886                 jsr fcn.ptr1_lo_shr_4
0x00008418      203f86                 jsr fcn.sta_and_inc_ptr_2
0x0000841b      203686                 jsr fcn.load_and_inc_ptr1
0x0000841e      290f                   and #0x0f                      ; clear upper nibble
0x00008420      203f86                 jsr fcn.sta_and_inc_ptr_2
0x00008423      e8                     inx
0x00008424      d0ef                   bne loop.8415
;-- loop.8415.end:
0x00008426      ad0edc                 lda sym.CIA1_CRA
0x00008429      29fe                   and #0xfe
0x0000842b      8d0edc                 sta sym.CIA1_CRA               ; stop timer A
0x0000842e      a501                   lda 0x01                       ; pr register
0x00008430      29fb                   and #0xfb                      ; enable character rom
0x00008432      8501                   sta 0x01
0x00008434      a200                   ldx #0x00
;-- loop.screen.8436:
0x00008436      bd00d1                 lda var.sp0x.mirror,x          ; sprite 0 horizontal position
0x00008439      9d0024                 sta var.bitmap_end,x
0x0000843c      9d002c                 sta var.char_end,x
0x0000843f      bd00d0                 lda sym.VIC_SPR0_X,x
0x00008442      9d0025                 sta 0x2500,x                   ; bitmap_end plus 256
0x00008445      9d002d                 sta 0x2d00,x                   ; char_rom_end plus 256
0x00008448      ca                     dex
0x00008449      d0eb                   bne loop.screen.8436
;-- loop.screen.8436.end:
0x0000844b      a501                   lda 0x01
0x0000844d      0904                   ora #0x04
0x0000844f      8501                   sta 0x01                       ; disable character rom
0x00008451      ad0edc                 lda sym.CIA1_CRA
0x00008454      0901                   ora #0x01
0x00008456      8d0edc                 sta sym.CIA1_CRA               ; start timer A
0x00008459      a911                   lda #0x11
0x0000845b      852a                   sta 0x2a
0x0000845d      a980                   lda #0x80                      ; ptr_1 to $8011
0x0000845f      852b                   sta 0x2b
0x00008461      a900                   lda #0x00
0x00008463      852c                   sta 0x2c
0x00008465      a920                   lda #0x20                      ; ptr_2 to $2000
0x00008467      852d                   sta 0x2d
0x00008469      200286                 jsr fcn.copy_stuff             ; don't really know what this is for yet but it's all commented
0x0000846c      a982                   lda #0x82
0x0000846e      852a                   sta 0x2a
0x00008470      a99e                   lda #0x9e                      ; ptr_1 to $9e82
0x00008472      852b                   sta 0x2b
0x00008474      a908                   lda #0x08
0x00008476      852c                   sta 0x2c
0x00008478      a928                   lda #0x28                      ; ptr_2 to $2808
0x0000847a      852d                   sta 0x2d
0x0000847c      200286                 jsr fcn.copy_stuff             ; call the weird function again
0x0000847f      a21f                   ldx #0x1f                      ; x = 31
0x00008481      bde49e                 lda 0x9ee4,x
0x00008484      9da828                 sta 0x28a8,x                   ; copy data from rom to character memory
0x00008487      ca                     dex
0x00008488      10f7                   bpl 0x008481                   ; if positive, continue copying
0x0000848a      8e0ed4                 stx sym.SID_S3Lo
0x0000848d      8e0fd4                 stx sym.SID_S3Hi               ; set sid voice 3 frequency
0x00008490      a980                   lda #0x80
0x00008492      8d12d4                 sta sym.SID_Ctl3               ; select noise waveform
0x00008495      a9f0                   lda #0xf0
0x00008497      8d06d4                 sta sym.SID_SUR1               ; set sid voice 1 to max volume
0x0000849a      8d0dd4                 sta sym.SID_SUR2               ; set sid voice 2 to max volume
0x0000849d      a2a1                   ldx #0xa1                      ; x = 161
0x0000849f      bdcf21                 lda 0x21cf,x
0x000084a2      9dcf29                 sta 0x29cf,x                   ; copy bitmap to char?
0x000084a5      ca                     dex
0x000084a6      d0f7                   bne 0x00849f
0x000084a8      78                     sei                            ; disable interrupts
0x000084a9      a983                   lda #0x83
0x000084ab      8d1403                 sta var.cinv_lo
0x000084ae      a985                   lda #0x85
0x000084b0      8d1503                 sta var.cinv_hi                ; set interrupt vector to $8583
0x000084b3      a901                   lda #0x01
0x000084b5      8d1ad0                 sta sym.VIC_IMR                ; enable raster irq
0x000084b8      a91b                   lda #0x1b
0x000084ba      8d11d0                 sta sym.VIC_CTRL1              ; set a bunch of stuff related to vertical scrolling
0x000084bd      a932                   lda #0x32                      ; 50
0x000084bf      8d12d0                 sta sym.VIC_HLINE              ; write line to compare for raster irq
0x000084c2      58                     cli                            ; re-enable interrupts
0x000084c3      a900                   lda #0x00
0x000084c5      a21f                   ldx #0x1f
0x000084c7      950e                   sta 0x0e,x                     ; write 31 zeros to 0x0e+x
0x000084c9      ca                     dex
0x000084ca      10fb                   bpl 0x0084c7
0x000084cc      9a                     txs                            ; transfer x to stack pointer
0x000084cd      200d91                 jsr fcn.set_volume_and_decay
0x000084d0      8d20d0                 sta sym.VIC_BORDERCOLOR        ; set border color to black
0x000084d3      8d21d0                 sta sym.VIC_BG_COLOR0          ; set background colour to black
0x000084d6      a90e                   lda #0x0e
0x000084d8      8d22d0                 sta sym.VIC_BG_COLOR1          ; set other background color to light blue
0x000084db      203a91                 jsr fcn.color_init
0x000084de      206391                 jsr fcn.screen_init
0x000084e1      208191                 jsr fcn.screen_copy_to_ram_4400
0x000084e4      209f91                 jsr fcn.screen_copy_to_ram_4800
0x000084e7      a507                   lda 0x07
0x000084e9      d02f                   bne loc.read_key_in_menu
0x000084eb      a5a2                   lda 0xa2
0x000084ed      c5a2                   cmp 0xa2
0x000084ef      f0fc                   beq 0x0084ed                   ; delay a jiffy
0x000084f1      a918                   lda #0x18
0x000084f3      8d18d0                 sta sym.VIC_VIDEO_ADR          ; set character memory and video matrix addresses
0x000084f6      a9d8                   lda #0xd8
0x000084f8      8d16d0                 sta sym.VIC_CTRL2              ; select 40 column multicolor mode
0x000084fb      a91f                   lda #0x1f
0x000084fd      8d15d0                 sta sym.VIC_SPR_ENA            ; enable sprites 0-4
0x00008500      8d1dd0                 sta sym.VIC_SPR_EXP_X          ; set sprites to double width
0x00008503      20f38d                 jsr fcn.check_col_and_stuff
0x00008506      20388e                 jsr fcn.init_lives_score_and_unknown_vars
0x00008509      a508                   lda 0x08
0x0000850b      f006                   beq 0x008513
0x0000850d      20f385                 jsr fcn.write_1_up_2_up_0_score
0x00008510      4c1685                 jmp 0x8516
0x00008513      20d885                 jsr fcn.write_null_1_up_0_score
0x00008516      a902                   lda #0x02
0x00008518      850a                   sta 0x0a
;-- loc.read_key_in_menu:
0x0000851a      a507                   lda 0x07
0x0000851c      d00c                   bne 0x00852a
0x0000851e      a50e                   lda 0x0e
0x00008520      f00f                   beq 0x008531
0x00008522      a50c                   lda 0x0c
0x00008524      d004                   bne 0x00852a
0x00008526      a904                   lda #0x04
0x00008528      d03a                   bne 0x008564                   ; branch if 4 != 0... weird
0x0000852a      a910                   lda #0x10
0x0000852c      2c00dc                 bit sym.CIA1_PRA
0x0000852f      f01e                   beq loc.start_game             ; branch if joystick 1 fire button pressed
0x00008531      a5c5                   lda 0xc5                       ; matrix coordinate of key pressed
0x00008533      c9ff                   cmp #0xff                      ; no key pressed I think
0x00008535      f0e3                   beq loc.read_key_in_menu
0x00008537      c5c5                   cmp 0xc5                       ; matrix coordinate of key pressed
0x00008539      f0fc                   beq 0x008537                   ; compare to last key pressed, loop until it changes
0x0000853b      c9ef                   cmp #0xef                      ; f1 I think
0x0000853d      f010                   beq loc.start_game
0x0000853f      a607                   ldx 0x07
0x00008541      e003                   cpx #0x03
0x00008543      901d                   bcc 0x008562                   ; (0x07) - 3 >= 0x100
0x00008545      c9bf                   cmp #0xbf                      ; f5
0x00008547      f020                   beq loc.set_difficulty
0x00008549      c9df                   cmp #0xdf                      ; f3
0x0000854b      f00f                   beq loc.set_num_players
0x0000854d      d0cb                   bne loc.read_key_in_menu
;-- loc.start_game:
0x0000854f      a900                   lda #0x00
0x00008551      850e                   sta 0x0e
0x00008553      8507                   sta 0x07
0x00008555      a901                   lda #0x01
0x00008557      850a                   sta 0x0a
0x00008559      4cc384                 jmp 0x84c3
;-- loc.set_num_players:
0x0000855c      a508                   lda 0x08
0x0000855e      4901                   eor #0x01
0x00008560      8508                   sta 0x08
0x00008562      a903                   lda #0x03
0x00008564      8507                   sta 0x07
0x00008566      4c1a85                 jmp loc.read_key_in_menu
;-- loc.set_difficulty:
0x00008569      a509                   lda 0x09
0x0000856b      c902                   cmp #0x02
0x0000856d      b004                   bcs 0x008573
0x0000856f      e609                   inc 0x09
0x00008571      d0ef                   bne 0x008562
0x00008573      c90c                   cmp #0x0c
0x00008575      f006                   beq 0x00857d
0x00008577      e609                   inc 0x09
0x00008579      e609                   inc 0x09
0x0000857b      d0e5                   bne 0x008562
0x0000857d      a900                   lda #0x00
0x0000857f      8509                   sta 0x09
0x00008581      f0df                   beq 0x008562
;-- fcn.interrupt:
0x00008583      ad19d0                 lda sym.VIC_IRR
0x00008586      2901                   and #0x01
0x00008588      f030                   beq 0x0085ba                   ; jump if raster is not source of irq
0x0000858a      e6a2                   inc 0xa2
0x0000858c      a932                   lda #0x32
0x0000858e      8d12d0                 sta sym.VIC_HLINE              ; set line 50 (start of visible display) to trigger raster irq
0x00008591      a981                   lda #0x81
0x00008593      8d19d0                 sta sym.VIC_IRR                ; set raster compare and any vic-ii chip to trigger vicirq, disabling collision and light pen triggers
0x00008596      c630                   dec 0x30
0x00008598      204f86                 jsr fcn.draw_screen
0x0000859b      a5a4                   lda 0xa4
0x0000859d      d003                   bne 0x0085a2
0x0000859f      20938b                 jsr fcn.sprite_direction_compare_loop
0x000085a2      a2ff                   ldx #0xff
0x000085a4      8e02dc                 stx sym.CIA1_DDRA              ; set port A for output
0x000085a7      ca                     dex
0x000085a8      8e00dc                 stx sym.CIA1_PRA               ; ignore all columns except zero
0x000085ab      ad01dc                 lda sym.CIA1_PRB               ; read a keypress
0x000085ae      cd01dc                 cmp sym.CIA1_PRB
0x000085b1      d0f8                   bne 0x0085ab                   ; loop until key changes
0x000085b3      85c5                   sta 0xc5                       ; store the key in our regular register
0x000085b5      a200                   ldx #0x00
0x000085b7      8e02dc                 stx sym.CIA1_DDRA              ; set port A for input
0x000085ba      4c7eea                 jmp fcn.kernal_interrupt
(fcn) fcn.init_gfx_settings 27
0x000085bd      a900                   lda #0x00
0x000085bf      a207                   ldx #0x07
0x000085c1      9dd002                 sta 0x02d0,x                   ; not sure what this location is for
0x000085c4      ca                     dex
0x000085c5      10fa                   bpl 0x0085c1
0x000085c7      a93a                   lda #0x3a
0x000085c9      8d18d0                 sta sym.VIC_VIDEO_ADR          ; set character and gfx data locations
0x000085cc      a9c8                   lda #0xc8
0x000085ce      8d16d0                 sta sym.VIC_CTRL2              ; set 40 column mode
0x000085d1      200d91                 jsr fcn.set_volume_and_decay
0x000085d4      8d15d0                 sta sym.VIC_SPR_ENA            ; disable sprites
0x000085d7      60                     rts
(fcn) fcn.write_null_1_up_0_score 27
0x000085d8      a205                   ldx #0x05
0x000085da      a980                   lda #0x80                      ; blank character
0x000085dc      9d2004                 sta 0x0420,x
0x000085df      9d4704                 sta 0x0447,x
0x000085e2      ca                     dex
0x000085e3      10f7                   bpl 0x0085dc
0x000085e5      20e38d                 jsr fcn.write_1_up_to_game_screen
0x000085e8      a205                   ldx #0x05
0x000085ea      a990                   lda #0x90                      ; zero character
0x000085ec      9d2a04                 sta 0x042a,x
0x000085ef      ca                     dex
0x000085f0      10fa                   bpl 0x0085ec
0x000085f2      60                     rts
(fcn) fcn.write_1_up_2_up_0_score 29
0x000085f3      20cb8d                 jsr fcn.write_2_up_to_game_screen
0x000085f6      a205                   ldx #0x05
0x000085f8      a990                   lda #0x90                      ; 0
0x000085fa      9d4704                 sta 0x0447,x                   ; write to screen 5 times
0x000085fd      ca                     dex
0x000085fe      10fa                   bpl 0x0085fa
0x00008600      30e3                   bmi 0x0085e5
(fcn) fcn.copy_stuff 53
0x00008602      a000                   ldy #0x00
0x00008604      b12a                   lda (0x2a),y
0x00008606      29c0                   and #0xc0                      ; mask off all but two high bits
0x00008608      d00f                   bne 0x008619                   ; stop looping if non-zero
0x0000860a      b12a                   lda (0x2a),y
0x0000860c      aa                     tax
0x0000860d      bdc69d                 lda sym.rom_data_arr_count_thing,x
0x00008610      203f86                 jsr fcn.sta_and_inc_ptr_2
0x00008613      203886                 jsr fcn.inc_ptr_1
0x00008616      4c0286                 jmp fcn.copy_stuff             ; loop back to start of function
0x00008619      4a                     lsr a
0x0000861a      4a                     lsr a
0x0000861b      4a                     lsr a
0x0000861c      4a                     lsr a
0x0000861d      4a                     lsr a
0x0000861e      4a                     lsr a
0x0000861f      8518                   sta 0x18                       ; $18 = acc >> 6
0x00008621      b12a                   lda (0x2a),y
0x00008623      c9ff                   cmp #0xff
0x00008625      f017                   beq 0x00863e                   ; return if value pointed to by ptr1 equals 255
0x00008627      293f                   and #0x3f                      ; mask off two high bits
0x00008629      aa                     tax
0x0000862a      bdc69d                 lda sym.rom_data_arr_count_thing,x
0x0000862d      203f86                 jsr fcn.sta_and_inc_ptr_2
0x00008630      c618                   dec 0x18
0x00008632      10f9                   bpl 0x00862d                   ; if positive, sta and inc ptr_1
0x00008634      30dd                   bmi 0x008613                   ; if negative, inc ptr_2
(fcn) fcn.load_and_inc_ptr1 2
0x00008636      b12a                   lda (0x2a),y
(fcn) fcn.inc_ptr_1 7
0x00008638      e62a                   inc 0x2a
0x0000863a      d002                   bne 0x00863e
0x0000863c      e62b                   inc 0x2b
0x0000863e      60                     rts
(fcn) fcn.sta_and_inc_ptr_2 9
0x0000863f      912c                   sta (0x2c),y
0x00008641      e62c                   inc 0x2c
0x00008643      d002                   bne 0x008647
0x00008645      e62d                   inc 0x2d
0x00008647      60                     rts
(fcn) fcn.ptr1_lo_shr_4 7
0x00008648      b12a                   lda (0x2a),y
0x0000864a      4a                     lsr a
0x0000864b      4a                     lsr a
0x0000864c      4a                     lsr a
0x0000864d      4a                     lsr a
0x0000864e      60                     rts
(fcn) fcn.draw_screen 1179
0x0000864f      a407                   ldy 0x07
0x00008651      d003                   bne 0x008656
0x00008653      4c1587                 jmp 0x8715
0x00008656      c001                   cpy #0x01
0x00008658      d03e                   bne 0x008698
0x0000865a      20bd85                 jsr fcn.init_gfx_settings
0x0000865d      a200                   ldx #0x00
0x0000865f      8a                     txa
0x00008660      8dc502                 sta 0x02c5
0x00008663      a980                   lda #0x80                      ; blank character
0x00008665      9d000c                 sta var.start_of_screen_in_menu,x
0x00008668      9d000d                 sta 0x0d00,x
0x0000866b      9d000e                 sta 0x0e00,x
0x0000866e      9d000f                 sta 0x0f00,x                   ; end of screen in menu -255
0x00008671      9d5007                 sta 0x0750,x                   ; row 21 of the in-game screen region
0x00008674      ca                     dex
0x00008675      d0ee                   bne 0x008665
0x00008677      a20d                   ldx #0x0d
0x00008679      bd1d9e                 lda 0x9e1d,x                   ; copy menu strings from rom to screen
0x0000867c      9d670e                 sta 0x0e67,x
0x0000867f      ca                     dex
0x00008680      10f7                   bpl 0x008679
0x00008682      e8                     inx
0x00008683      8a                     txa
0x00008684      18                     clc
0x00008685      6901                   adc #0x01
0x00008687      9d5f0c                 sta 0x0c5f,x                   ; draw pac-man logo to menu screen
0x0000868a      8a                     txa
0x0000868b      690d                   adc #0x0d
0x0000868d      9d870c                 sta 0x0c87,x
0x00008690      e8                     inx
0x00008691      e00c                   cpx #0x0c
0x00008693      d0ee                   bne 0x008683
0x00008695      e607                   inc 0x07
0x00008697      60                     rts
0x00008698      c002                   cpy #0x02
0x0000869a      d008                   bne 0x0086a4
0x0000869c      a50b                   lda 0x0b
0x0000869e      c5a2                   cmp 0xa2                       ; jiffy clock
0x000086a0      d0f5                   bne 0x008697
0x000086a2      f0f1                   beq 0x008695
0x000086a4      a608                   ldx 0x08                       ; num players
0x000086a6      e8                     inx
0x000086a7      8a                     txa
0x000086a8      0990                   ora #0x90
0x000086aa      8dd70c                 sta 0x0cd7
0x000086ad      a508                   lda 0x08                       ; num players
0x000086af      d00b                   bne 0x0086bc
0x000086b1      c003                   cpy #0x03
0x000086b3      d003                   bne 0x0086b8
0x000086b5      20d885                 jsr fcn.write_null_1_up_0_score
0x000086b8      a992                   lda #0x92                      ; 2 (player game)
0x000086ba      d009                   bne 0x0086c5
0x000086bc      c003                   cpy #0x03
0x000086be      d003                   bne 0x0086c3
0x000086c0      20f385                 jsr fcn.write_1_up_2_up_0_score
0x000086c3      a991                   lda #0x91                      ; 1 (player game)
0x000086c5      8d4f0d                 sta 0x0d4f
0x000086c8      a20a                   ldx #0x0a
0x000086ca      bd589e                 lda str.player_game,x
0x000086cd      9d510d                 sta 0x0d51,x
0x000086d0      9dd90c                 sta 0x0cd9,x
0x000086d3      ca                     dex
0x000086d4      10f4                   bpl 0x0086ca
0x000086d6      20bd85                 jsr fcn.init_gfx_settings
0x000086d9      a20b                   ldx #0x0b
0x000086db      bd379e                 lda str.press_f3_for,x
0x000086de      9d270d                 sta 0x0d27,x
0x000086e1      bd439e                 lda str.press_f5_to,x
0x000086e4      9d400e                 sta 0x0e40,x
0x000086e7      bd2b9e                 lda str.press_f1_to,x
0x000086ea      9de00e                 sta 0x0ee0,x
0x000086ed      ca                     dex
0x000086ee      10eb                   bpl 0x0086db
0x000086f0      a609                   ldx 0x09
0x000086f2      bd749e                 lda 0x9e74,x
0x000086f5      8dcc0d                 sta 0x0dcc
0x000086f8      18                     clc
0x000086f9      6901                   adc #0x01
0x000086fb      8dcd0d                 sta 0x0dcd
0x000086fe      a210                   ldx #0x10
0x00008700      bd639e                 lda str.change_difficulty,x
0x00008703      9d650e                 sta 0x0e65,x
0x00008706      ca                     dex
0x00008707      10f7                   bpl 0x008700
0x00008709      a208                   ldx #0x08
0x0000870b      bd4f9e                 lda str.play_game,x
0x0000870e      9d090f                 sta 0x0f09,x
0x00008711      ca                     dex
0x00008712      10f7                   bpl 0x00870b
0x00008714      60                     rts
0x00008715      a204                   ldx #0x04
0x00008717      a008                   ldy #0x08
0x00008719      bdd002                 lda 0x02d0,x
0x0000871c      38                     sec
0x0000871d      e92c                   sbc #0x2c
0x0000871f      0a                     asl a
0x00008720      9900d0                 sta sym.VIC_SPR0_X,y           ; set sprite positions
0x00008723      ad10d0                 lda sym.VIC_SPR_HI_X
0x00008726      9005                   bcc 0x00872d
0x00008728      1d049f                 ora 0x9f04,x
0x0000872b      d003                   bne 0x008730
0x0000872d      3d099f                 and 0x9f09,x
0x00008730      8d10d0                 sta sym.VIC_SPR_HI_X
0x00008733      b541                   lda 0x41,x
0x00008735      18                     clc
0x00008736      691b                   adc #0x1b
0x00008738      9901d0                 sta sym.VIC_SPR0_Y,y
0x0000873b      88                     dey
0x0000873c      88                     dey
0x0000873d      ca                     dex
0x0000873e      10d9                   bpl 0x008719
0x00008740      a204                   ldx #0x04
0x00008742      a9c4                   lda #0xc4
0x00008744      9df807                 sta 0x07f8,x
0x00008747      38                     sec
0x00008748      e901                   sbc #0x01
0x0000874a      ca                     dex
0x0000874b      10f7                   bpl 0x008744
0x0000874d      a545                   lda 0x45
0x0000874f      85c0                   sta 0xc0
0x00008751      a953                   lda #0x53
0x00008753      85c1                   sta 0xc1
0x00008755      200588                 jsr fcn.sety_12_setx_34        ; fcn.sta_c0_inc_c1_sety_12_setx_34+0x4
0x00008758      b1c0                   lda (0xc0),y
0x0000875a      9d0031                 sta 0x3100,x
0x0000875d      ca                     dex
0x0000875e      ca                     dex
0x0000875f      ca                     dex
0x00008760      88                     dey
0x00008761      c002                   cpy #0x02
0x00008763      d0f3                   bne 0x008758
0x00008765      a541                   lda 0x41
0x00008767      200188                 jsr fcn.sta_c0_inc_c1_sety_12_setx_34
0x0000876a      b1c0                   lda (0xc0),y
0x0000876c      9d0030                 sta 0x3000,x
0x0000876f      ca                     dex
0x00008770      ca                     dex
0x00008771      ca                     dex
0x00008772      88                     dey
0x00008773      c001                   cpy #0x01
0x00008775      d0f3                   bne 0x00876a
0x00008777      a542                   lda 0x42
0x00008779      200188                 jsr fcn.sta_c0_inc_c1_sety_12_setx_34
0x0000877c      b1c0                   lda (0xc0),y
0x0000877e      9d4030                 sta 0x3040,x
0x00008781      ca                     dex
0x00008782      ca                     dex
0x00008783      ca                     dex
0x00008784      88                     dey
0x00008785      c001                   cpy #0x01
0x00008787      d0f3                   bne 0x00877c
0x00008789      a543                   lda 0x43
0x0000878b      200188                 jsr fcn.sta_c0_inc_c1_sety_12_setx_34
0x0000878e      b1c0                   lda (0xc0),y
0x00008790      9d8030                 sta 0x3080,x
0x00008793      ca                     dex
0x00008794      ca                     dex
0x00008795      ca                     dex
0x00008796      88                     dey
0x00008797      c001                   cpy #0x01
0x00008799      d0f3                   bne 0x00878e
0x0000879b      a544                   lda 0x44
0x0000879d      200188                 jsr fcn.sta_c0_inc_c1_sety_12_setx_34
0x000087a0      b1c0                   lda (0xc0),y
0x000087a2      9dc030                 sta 0x30c0,x
0x000087a5      ca                     dex
0x000087a6      ca                     dex
0x000087a7      ca                     dex
0x000087a8      88                     dey
0x000087a9      c001                   cpy #0x01
0x000087ab      d0f3                   bne 0x0087a0
0x000087ad      a5a2                   lda 0xa2
0x000087af      290f                   and #0x0f
0x000087b1      d013                   bne 0x0087c6
0x000087b3      ad00dc                 lda sym.CIA1_PRA
0x000087b6      2910                   and #0x10                      ; read joystick 2 fire pressed, pause button?
0x000087b8      d006                   bne 0x0087c0
0x000087ba      a557                   lda 0x57
0x000087bc      4980                   eor #0x80
0x000087be      8557                   sta 0x57
0x000087c0      a50c                   lda 0x0c
0x000087c2      f002                   beq 0x0087c6
0x000087c4      c60c                   dec 0x0c
0x000087c6      a557                   lda 0x57
0x000087c8      f003                   beq 0x0087cd
0x000087ca      4c0d91                 jmp fcn.set_volume_and_decay
0x000087cd      20ad8d                 jsr fcn.read_jiffy_and_write_to_screen
0x000087d0      a50a                   lda 0x0a
0x000087d2      f004                   beq 0x0087d8
0x000087d4      c902                   cmp #0x02
0x000087d6      f01e                   beq 0x0087f6
0x000087d8      a50e                   lda 0x0e
0x000087da      f00a                   beq 0x0087e6
0x000087dc      a508                   lda 0x08
0x000087de      f003                   beq 0x0087e3
0x000087e0      20cb8d                 jsr fcn.write_2_up_to_game_screen
0x000087e3      4ce38d                 jmp fcn.write_1_up_to_game_screen
0x000087e6      a514                   lda 0x14
0x000087e8      f003                   beq 0x0087ed
0x000087ea      4c5c8c                 jmp 0x8c5c
0x000087ed      a50f                   lda 0x0f
0x000087ef      d046                   bne 0x008837
0x000087f1      a510                   lda 0x10
0x000087f3      d015                   bne loc.update_all_the_things
;-- loc.rts_2:
0x000087f5      60                     rts
0x000087f6      e610                   inc 0x10
0x000087f8      a900                   lda #0x00
0x000087fa      8503                   sta 0x03
0x000087fc      850a                   sta 0x0a
0x000087fe      4cd78c                 jmp fcn.ready
(fcn) fcn.sta_c0_inc_c1_sety_12_setx_34 9
0x00008801      85c0                   sta 0xc0
0x00008803      e6c1                   inc 0xc1
;-- fcn.sety_12_setx_34:
0x00008805      a00c                   ldy #0x0c
0x00008807      a222                   ldx #0x22
0x00008809      60                     rts
;-- loc.update_all_the_things:
0x0000880a      a5a2                   lda 0xa2                       ; read jiffy
0x0000880c      2903                   and #0x03                      ; low two bits only
0x0000880e      d0e5                   bne loc.rts_2
0x00008810      a65f                   ldx 0x5f
0x00008812      e040                   cpx #0x40
0x00008814      f01a                   beq 0x008830
0x00008816      bd9c9c                 lda 0x9c9c,x                   ; load from rom
0x00008819      8d01d4                 sta sym.SID_S1Hi               ; write to sid
0x0000881c      bddc9c                 lda 0x9cdc,x
0x0000881f      8d00d4                 sta sym.SID_S1Lo
0x00008822      a921                   lda #0x21
0x00008824      8d04d4                 sta sym.SID_Ctl1               ; start attack/decay/sustain select sawtooth waveform
0x00008827      e65f                   inc 0x5f
0x00008829      e028                   cpx #0x28
0x0000882b      d0c8                   bne loc.rts_2
0x0000882d      4c528d                 jmp loc.player_dead
0x00008830      e60f                   inc 0x0f
0x00008832      e68a                   inc 0x8a
0x00008834      20a28d                 jsr fcn.write_nulls_to_screen
0x00008837      a512                   lda 0x12
0x00008839      f023                   beq 0x00885e
0x0000883b      c901                   cmp #0x01
0x0000883d      d012                   bne 0x008851
0x0000883f      20788a                 jsr fcn.restore_screen_from_ram_4400
0x00008842      a511                   lda 0x11
0x00008844      d0af                   bne loc.rts_2
0x00008846      a50e                   lda 0x0e
0x00008848      d0ab                   bne loc.rts_2
0x0000884a      e612                   inc 0x12
0x0000884c      a940                   lda #0x40
0x0000884e      8513                   sta 0x13
0x00008850      60                     rts
0x00008851      a513                   lda 0x13
0x00008853      f003                   beq 0x008858
0x00008855      c613                   dec 0x13
0x00008857      60                     rts
0x00008858      a900                   lda #0x00
0x0000885a      8512                   sta 0x12
0x0000885c      f0d4                   beq 0x008832
0x0000885e      209f95                 jsr fcn.blink_power_ups
0x00008861      a5ac                   lda 0xac                       ; screen management routines temporarily use this address as a work pointer
0x00008863      f006                   beq 0x00886b
0x00008865      20848e                 jsr fcn.more_sound_stuff
0x00008868      4c3e8f                 jmp fcn.pacman_collision_draw_points
0x0000886b      20ee96                 jsr fcn.set_sprite_direction_2
0x0000886e      a5a4                   lda 0xa4
0x00008870      f003                   beq 0x008875
0x00008872      4c8b90                 jmp fcn.sprite_colors_and_sound_2 ; fcn.voice_2_sawtooth_2+0x1a
0x00008875      207e96                 jsr fcn.draw_bonus
0x00008878      20e993                 jsr fcn.calculate_score_maybe
0x0000887b      a514                   lda 0x14
0x0000887d      d047                   bne 0x0088c6
0x0000887f      ad1ed0                 lda sym.VIC_SP_SP_COL
0x00008882      85bf                   sta 0xbf
0x00008884      2910                   and #0x10
0x00008886      f03e                   beq 0x0088c6
0x00008888      a200                   ldx #0x00
0x0000888a      a001                   ldy #0x01
0x0000888c      b58a                   lda 0x8a,x
0x0000888e      0a                     asl a
0x0000888f      302d                   bmi 0x0088be
0x00008891      98                     tya
0x00008892      24bf                   bit 0xbf                       ; we previously stored the result of SP_SP_COL here
0x00008894      f028                   beq 0x0088be
0x00008896      a54a                   lda 0x4a
0x00008898      d546                   cmp 0x46,x
0x0000889a      b008                   bcs 0x0088a4
0x0000889c      38                     sec
0x0000889d      b546                   lda 0x46,x
0x0000889f      e54a                   sbc 0x4a
0x000088a1      4ca688                 jmp 0x88a6
0x000088a4      f546                   sbc 0x46,x
0x000088a6      c904                   cmp #0x04
0x000088a8      b014                   bcs 0x0088be
0x000088aa      a545                   lda 0x45
0x000088ac      d541                   cmp 0x41,x
0x000088ae      b008                   bcs 0x0088b8
0x000088b0      38                     sec
0x000088b1      b541                   lda 0x41,x
0x000088b3      e545                   sbc 0x45
0x000088b5      4cba88                 jmp 0x88ba
0x000088b8      f541                   sbc 0x41,x
0x000088ba      c905                   cmp #0x05
0x000088bc      900b                   bcc 0x0088c9
0x000088be      98                     tya
0x000088bf      0a                     asl a
0x000088c0      a8                     tay
0x000088c1      e8                     inx
0x000088c2      e004                   cpx #0x04
0x000088c4      d0c6                   bne 0x00888c
0x000088c6      4c7b89                 jmp 0x897b
0x000088c9      b58a                   lda 0x8a,x
0x000088cb      3003                   bmi 0x0088d0
0x000088cd      4c6889                 jmp 0x8968
0x000088d0      a942                   lda #0x42
0x000088d2      958a                   sta 0x8a,x
0x000088d4      86a7                   stx 0xa7
0x000088d6      e6a8                   inc 0xa8
0x000088d8      38                     sec
0x000088d9      a54a                   lda 0x4a
0x000088db      e904                   sbc #0x04
0x000088dd      8dd402                 sta 0x02d4
0x000088e0      18                     clc
0x000088e1      a002                   ldy #0x02
0x000088e3      6902                   adc #0x02
0x000088e5      99d502                 sta 0x02d5,y
0x000088e8      88                     dey
0x000088e9      10f8                   bpl 0x0088e3
0x000088eb      6902                   adc #0x02
0x000088ed      9dd002                 sta 0x02d0,x
0x000088f0      a901                   lda #0x01
0x000088f2      8dc702                 sta 0x02c7
0x000088f5      9d27d0                 sta sym.VIC_SPR0_COLOR,x
0x000088f8      a545                   lda 0x45
0x000088fa      d541                   cmp 0x41,x
0x000088fc      f00b                   beq 0x008909
0x000088fe      9004                   bcc 0x008904
0x00008900      a9fe                   lda #0xfe
0x00008902      3002                   bmi 0x008906
0x00008904      a902                   lda #0x02
0x00008906      18                     clc
0x00008907      6545                   adc 0x45
0x00008909      8526                   sta 0x26
0x0000890b      8528                   sta 0x28
0x0000890d      a953                   lda #0x53
0x0000890f      8527                   sta 0x27
0x00008911      8a                     txa
0x00008912      18                     clc
0x00008913      6527                   adc 0x27
0x00008915      6901                   adc #0x01
0x00008917      8529                   sta 0x29
0x00008919      a5a8                   lda 0xa8
0x0000891b      0a                     asl a
0x0000891c      a8                     tay
0x0000891d      b91c9d                 lda 0x9d1c,y
0x00008920      852a                   sta 0x2a
0x00008922      c8                     iny
0x00008923      b91c9d                 lda 0x9d1c,y
0x00008926      852b                   sta 0x2b
0x00008928      a00f                   ldy #0x0f
0x0000892a      b12a                   lda (0x2a),y
0x0000892c      9126                   sta (0x26),y
0x0000892e      b95f9c                 lda 0x9c5f,y
0x00008931      9128                   sta (0x28),y
0x00008933      88                     dey
0x00008934      10f4                   bpl 0x00892a
0x00008936      a900                   lda #0x00
0x00008938      8d0bd4                 sta sym.SID_Ctl2
0x0000893b      e6a4                   inc 0xa4
0x0000893d      a984                   lda #0x84
0x0000893f      85a6                   sta 0xa6
0x00008941      a902                   lda #0x02
0x00008943      85a5                   sta 0xa5
0x00008945      a5a8                   lda 0xa8
0x00008947      d004                   bne 0x00894d
0x00008949      a902                   lda #0x02
0x0000894b      d016                   bne 0x008963
0x0000894d      c901                   cmp #0x01
0x0000894f      d004                   bne 0x008955
0x00008951      a904                   lda #0x04
0x00008953      d00e                   bne 0x008963
0x00008955      c902                   cmp #0x02
0x00008957      d004                   bne 0x00895d
0x00008959      a908                   lda #0x08
0x0000895b      d006                   bne 0x008963
0x0000895d      a901                   lda #0x01
0x0000895f      8552                   sta 0x52
0x00008961      a906                   lda #0x06
0x00008963      8553                   sta 0x53
0x00008965      4c6d94                 jmp fcn.update_screen_score_and_lives
0x00008968      a566                   lda 0x66
0x0000896a      0980                   ora #0x80
0x0000896c      8566                   sta 0x66
0x0000896e      200d91                 jsr fcn.set_volume_and_decay
0x00008971      a901                   lda #0x01
0x00008973      856a                   sta 0x6a
0x00008975      85ac                   sta 0xac
0x00008977      a960                   lda #0x60
0x00008979      85ad                   sta 0xad
0x0000897b      a55b                   lda 0x5b
0x0000897d      f05b                   beq 0x0089da
0x0000897f      a54a                   lda 0x4a
0x00008981      c97c                   cmp #0x7c
0x00008983      d055                   bne 0x0089da
0x00008985      a545                   lda 0x45
0x00008987      c984                   cmp #0x84
0x00008989      d04f                   bne 0x0089da
0x0000898b      a619                   ldx 0x19
0x0000898d      b51e                   lda 0x1e,x
0x0000898f      c90c                   cmp #0x0c
0x00008991      9002                   bcc 0x008995
0x00008993      a90c                   lda #0x0c
0x00008995      aa                     tax
0x00008996      bdb99d                 lda 0x9db9,x
0x00008999      aa                     tax
0x0000899a      a000                   ldy #0x00
0x0000899c      bd919d                 lda 0x9d91,x
0x0000899f      994106                 sta 0x0641,y
0x000089a2      e8                     inx
0x000089a3      c8                     iny
0x000089a4      c005                   cpy #0x05
0x000089a6      d0f4                   bne 0x00899c
0x000089a8      a901                   lda #0x01
0x000089aa      855d                   sta 0x5d
0x000089ac      a940                   lda #0x40
0x000089ae      855e                   sta 0x5e
0x000089b0      a900                   lda #0x00
0x000089b2      855b                   sta 0x5b
0x000089b4      8559                   sta 0x59
0x000089b6      855a                   sta 0x5a
0x000089b8      a901                   lda #0x01
0x000089ba      85b6                   sta 0xb6
0x000089bc      a910                   lda #0x10
0x000089be      85b7                   sta 0xb7
0x000089c0      a619                   ldx 0x19
0x000089c2      b51e                   lda 0x1e,x
0x000089c4      c90c                   cmp #0x0c
0x000089c6      9002                   bcc 0x0089ca
0x000089c8      a90c                   lda #0x0c
0x000089ca      0a                     asl a
0x000089cb      aa                     tax
0x000089cc      bd944d                 lda 0x4d94,x
0x000089cf      8552                   sta 0x52
0x000089d1      e8                     inx
0x000089d2      bd944d                 lda 0x4d94,x
0x000089d5      8553                   sta 0x53
0x000089d7      206d94                 jsr fcn.update_screen_score_and_lives
0x000089da      a5ac                   lda 0xac
0x000089dc      f001                   beq 0x0089df
0x000089de      60                     rts
0x000089df      209b8f                 jsr fcn.blue_ghosts_mode_maybe
0x000089e2      a5a4                   lda 0xa4
0x000089e4      d0f8                   bne 0x0089de
0x000089e6      20e390                 jsr fcn.some_rom_music
0x000089e9      200d8c                 jsr fcn.math_and_voice_1
0x000089ec      20498c                 jsr fcn.read_jiffy_update_6b_die
0x000089ef      a564                   lda 0x64
0x000089f1      f004                   beq 0x0089f7
0x000089f3      a900                   lda #0x00
0x000089f5      f009                   beq 0x008a00
0x000089f7      a565                   lda 0x65
0x000089f9      d005                   bne 0x008a00
0x000089fb      a204                   ldx #0x04
0x000089fd      20e095                 jsr fcn.ghost_position_related_maybe
0x00008a00      8563                   sta 0x63
0x00008a02      a900                   lda #0x00
0x00008a04      8564                   sta 0x64
0x00008a06      20bd91                 jsr fcn.update_pacman
0x00008a09      a900                   lda #0x00
0x00008a0b      8565                   sta 0x65
0x00008a0d      208493                 jsr fcn.pacman_pellet_collision
0x00008a10      a5a2                   lda 0xa2
0x00008a12      2903                   and #0x03
0x00008a14      d003                   bne 0x008a19
0x00008a16      20f597                 jsr fcn.set_sprite_direction
0x00008a19      201796                 jsr fcn.timed_cmp
0x00008a1c      a564                   lda 0x64
0x00008a1e      d057                   bne 0x008a77
0x00008a20      a203                   ldx #0x03
0x00008a22      b58a                   lda 0x8a,x
0x00008a24      297f                   and #0x7f
0x00008a26      f04c                   beq 0x008a74
0x00008a28      a5a2                   lda 0xa2
0x00008a2a      2907                   and #0x07
0x00008a2c      d006                   bne 0x008a34
0x00008a2e      b586                   lda 0x86,x
0x00008a30      f002                   beq 0x008a34
0x00008a32      d686                   dec 0x86,x
0x00008a34      b58a                   lda 0x8a,x
0x00008a36      293f                   and #0x3f
0x00008a38      f03a                   beq 0x008a74
0x00008a3a      b58a                   lda 0x8a,x
0x00008a3c      0a                     asl a
0x00008a3d      3035                   bmi 0x008a74
0x00008a3f      b541                   lda 0x41,x
0x00008a41      c974                   cmp #0x74
0x00008a43      d00a                   bne 0x008a4f
0x00008a45      b546                   lda 0x46,x
0x00008a47      c9a7                   cmp #0xa7
0x00008a49      b008                   bcs 0x008a53
0x00008a4b      c952                   cmp #0x52
0x00008a4d      9004                   bcc 0x008a53
0x00008a4f      b58a                   lda 0x8a,x
0x00008a51      1017                   bpl 0x008a6a
0x00008a53      20e095                 jsr fcn.ghost_position_related_maybe
0x00008a56      c900                   cmp #0x00
0x00008a58      d01a                   bne 0x008a74
0x00008a5a      b434                   ldy 0x34,x
0x00008a5c      c001                   cpy #0x01
0x00008a5e      d004                   bne 0x008a64
0x00008a60      9534                   sta 0x34,x
0x00008a62      f00d                   beq 0x008a71
0x00008a64      a901                   lda #0x01
0x00008a66      9534                   sta 0x34,x
0x00008a68      d00a                   bne 0x008a74
0x00008a6a      20e095                 jsr fcn.ghost_position_related_maybe
0x00008a6d      c900                   cmp #0x00
0x00008a6f      d003                   bne 0x008a74
0x00008a71      204598                 jsr fcn.buncha_randomness_and_lut_stuff_and_triangle
0x00008a74      ca                     dex
0x00008a75      10ab                   bpl 0x008a22
0x00008a77      60                     rts
(fcn) fcn.restore_screen_from_ram_4400 249
0x00008a78      20aa95                 jsr fcn.draw_power_ups
0x00008a7b      a511                   lda 0x11
0x00008a7d      f069                   beq 0x008ae8
0x00008a7f      a613                   ldx 0x13
0x00008a81      f003                   beq 0x008a86
0x00008a83      c613                   dec 0x13
0x00008a85      60                     rts
0x00008a86      c901                   cmp #0x01
0x00008a88      d026                   bne 0x008ab0
0x00008a8a      a200                   ldx #0x00
0x00008a8c      bd0044                 lda 0x4400,x
0x00008a8f      9d5004                 sta 0x0450,x
0x00008a92      bd0045                 lda 0x4500,x
0x00008a95      9d5005                 sta 0x0550,x
0x00008a98      bd0046                 lda 0x4600,x
0x00008a9b      9d5006                 sta 0x0650,x
0x00008a9e      bd0047                 lda 0x4700,x
0x00008aa1      9d5007                 sta 0x0750,x
0x00008aa4      e8                     inx
0x00008aa5      d0e5                   bne 0x008a8c
0x00008aa7      20cb8d                 jsr fcn.write_2_up_to_game_screen
0x00008aaa      a900                   lda #0x00
0x00008aac      8519                   sta 0x19
0x00008aae      f033                   beq 0x008ae3
0x00008ab0      c902                   cmp #0x02
0x00008ab2      d026                   bne 0x008ada
0x00008ab4      a200                   ldx #0x00
0x00008ab6      bd0048                 lda 0x4800,x
0x00008ab9      9d5004                 sta 0x0450,x
0x00008abc      bd0049                 lda 0x4900,x
0x00008abf      9d5005                 sta 0x0550,x
0x00008ac2      bd004a                 lda 0x4a00,x
0x00008ac5      9d5006                 sta 0x0650,x
0x00008ac8      bd004b                 lda 0x4b00,x
0x00008acb      9d5007                 sta 0x0750,x
0x00008ace      e8                     inx
0x00008acf      d0e5                   bne 0x008ab6
0x00008ad1      20e38d                 jsr fcn.write_1_up_to_game_screen
0x00008ad4      a901                   lda #0x01
0x00008ad6      8519                   sta 0x19
0x00008ad8      d009                   bne 0x008ae3
0x00008ada      20aa95                 jsr fcn.draw_power_ups
0x00008add      a900                   lda #0x00
0x00008adf      8511                   sta 0x11
0x00008ae1      f048                   beq 0x008b2b
0x00008ae3      a903                   lda #0x03
0x00008ae5      8511                   sta 0x11
0x00008ae7      60                     rts
0x00008ae8      a508                   lda 0x08
0x00008aea      f03f                   beq 0x008b2b
0x00008aec      a519                   lda 0x19
0x00008aee      d01d                   bne 0x008b0d
0x00008af0      a51b                   lda 0x1b
0x00008af2      f037                   beq 0x008b2b
0x00008af4      a51a                   lda 0x1a
0x00008af6      d00a                   bne 0x008b02
0x00008af8      a902                   lda #0x02
0x00008afa      8511                   sta 0x11
0x00008afc      a930                   lda #0x30
0x00008afe      8513                   sta 0x13
0x00008b00      d038                   bne 0x008b3a
0x00008b02      208191                 jsr fcn.screen_copy_to_ram_4400
0x00008b05      a930                   lda #0x30
0x00008b07      8513                   sta 0x13
0x00008b09      a902                   lda #0x02
0x00008b0b      d0d8                   bne 0x008ae5
0x00008b0d      a51a                   lda 0x1a
0x00008b0f      f01a                   beq 0x008b2b
0x00008b11      a51b                   lda 0x1b
0x00008b13      d00a                   bne 0x008b1f
0x00008b15      a901                   lda #0x01
0x00008b17      8511                   sta 0x11
0x00008b19      a930                   lda #0x30
0x00008b1b      8513                   sta 0x13
0x00008b1d      d01b                   bne 0x008b3a
0x00008b1f      209f91                 jsr fcn.screen_copy_to_ram_4800
0x00008b22      a930                   lda #0x30
0x00008b24      8513                   sta 0x13
0x00008b26      a901                   lda #0x01
0x00008b28      8511                   sta 0x11
0x00008b2a      60                     rts
0x00008b2b      a619                   ldx 0x19
0x00008b2d      b51a                   lda 0x1a,x
0x00008b2f      f009                   beq 0x008b3a
0x00008b31      20f38d                 jsr fcn.check_col_and_stuff
0x00008b34      20d78c                 jsr fcn.ready
0x00008b37      4c528d                 jmp loc.player_dead
0x00008b3a      a92c                   lda #0x2c                      ; 0x2c-0x39 reads GAME OVER
0x00008b3c      a200                   ldx #0x00
0x00008b3e      9d3d06                 sta 0x063d,x
0x00008b41      18                     clc
0x00008b42      6901                   adc #0x01
0x00008b44      e8                     inx
0x00008b45      e00e                   cpx #0x0e
0x00008b47      d0f5                   bne 0x008b3e
0x00008b49      a902                   lda #0x02
0x00008b4b      8dc702                 sta 0x02c7
0x00008b4e      8d2bd0                 sta sym.VIC_SPR4_COLOR
0x00008b51      a511                   lda 0x11
0x00008b53      d0d5                   bne 0x008b2a
0x00008b55      a22a                   ldx #0x2a
0x00008b57      20718b                 jsr fcn.cmp_game_screen_rows
0x00008b5a      a247                   ldx #0x47
0x00008b5c      20718b                 jsr fcn.cmp_game_screen_rows
0x00008b5f      a900                   lda #0x00
0x00008b61      8512                   sta 0x12
0x00008b63      a901                   lda #0x01
0x00008b65      850e                   sta 0x0e
0x00008b67      a9e2                   lda #0xe2
0x00008b69      850c                   sta 0x0c
0x00008b6b      20e38d                 jsr fcn.write_1_up_to_game_screen
0x00008b6e      4caa95                 jmp fcn.draw_power_ups
(fcn) fcn.cmp_game_screen_rows 34
0x00008b71      a000                   ldy #0x00
0x00008b73      bd0004                 lda var.start_of_screen_in_game,x
0x00008b76      d93904                 cmp 0x0439,y
0x00008b79      f004                   beq 0x008b7f
0x00008b7b      9015                   bcc 0x008b92
0x00008b7d      b007                   bcs 0x008b86
0x00008b7f      e8                     inx
0x00008b80      c8                     iny
0x00008b81      c006                   cpy #0x06
0x00008b83      d0ee                   bne 0x008b73
0x00008b85      60                     rts
0x00008b86      bd0004                 lda var.start_of_screen_in_game,x
0x00008b89      993904                 sta 0x0439,y
0x00008b8c      e8                     inx
0x00008b8d      c8                     iny
0x00008b8e      c006                   cpy #0x06
0x00008b90      d0f4                   bne 0x008b86
0x00008b92      60                     rts
(fcn) fcn.sprite_direction_compare_loop 15
0x00008b93      a204                   ldx #0x04
0x00008b95      b541                   lda 0x41,x
0x00008b97      c974                   cmp #0x74
0x00008b99      d003                   bne 0x008b9e
0x00008b9b      20a28b                 jsr fcn.sprite_direction_compare
0x00008b9e      ca                     dex
0x00008b9f      10f4                   bpl 0x008b95
0x00008ba1      60                     rts
(fcn) fcn.sprite_direction_compare 107
0x00008ba2      8532                   sta 0x32
0x00008ba4      8a                     txa
0x00008ba5      c904                   cmp #0x04
0x00008ba7      d002                   bne 0x008bab
0x00008ba9      a9ff                   lda #0xff
0x00008bab      18                     clc
0x00008bac      6954                   adc #0x54
0x00008bae      8533                   sta 0x33
0x00008bb0      a9ff                   lda #0xff
0x00008bb2      85bd                   sta 0xbd
0x00008bb4      b546                   lda 0x46,x
0x00008bb6      85be                   sta 0xbe
0x00008bb8      c9c0                   cmp #0xc0
0x00008bba      9026                   bcc 0x008be2
0x00008bbc      a9c0                   lda #0xc0
0x00008bbe      c5be                   cmp 0xbe
0x00008bc0      f04a                   beq loc.rts
0x00008bc2      c6be                   dec 0xbe
0x00008bc4      06bd                   asl 0xbd
0x00008bc6      b0f6                   bcs 0x008bbe
0x00008bc8      b546                   lda 0x46,x
0x00008bca      c9ca                   cmp #0xca
0x00008bcc      903e                   bcc loc.rts
0x00008bce      b54b                   lda 0x4b,x                     ; sprite direction
0x00008bd0      c908                   cmp #0x08                      ; compare to right
0x00008bd2      d038                   bne loc.rts
0x00008bd4      a92a                   lda #0x2a
0x00008bd6      9546                   sta 0x46,x
0x00008bd8      e004                   cpx #0x04
0x00008bda      d030                   bne loc.rts
0x00008bdc      c63d                   dec 0x3d
0x00008bde      a9df                   lda #0xdf
0x00008be0      d028                   bne 0x008c0a
0x00008be2      c939                   cmp #0x39
0x00008be4      b026                   bcs loc.rts
0x00008be6      a938                   lda #0x38
0x00008be8      c5be                   cmp 0xbe
0x00008bea      f020                   beq loc.rts
0x00008bec      e6be                   inc 0xbe
0x00008bee      46bd                   lsr 0xbd
0x00008bf0      b0f4                   bcs 0x008be6
0x00008bf2      b546                   lda 0x46,x
0x00008bf4      c92a                   cmp #0x2a
0x00008bf6      d014                   bne loc.rts
0x00008bf8      b54b                   lda 0x4b,x                     ; sprite direction
0x00008bfa      c904                   cmp #0x04                      ; compare to left
0x00008bfc      d00e                   bne loc.rts
0x00008bfe      a9ca                   lda #0xca
0x00008c00      9546                   sta 0x46,x
0x00008c02      e004                   cpx #0x04
0x00008c04      d006                   bne loc.rts
0x00008c06      e63d                   inc 0x3d
0x00008c08      a907                   lda #0x07
0x00008c0a      853c                   sta 0x3c
;-- loc.rts:
0x00008c0c      60                     rts
(fcn) fcn.math_and_voice_1 60
0x00008c0d      a6b6                   ldx 0xb6
0x00008c0f      f037                   beq 0x008c48
0x00008c11      a5b7                   lda 0xb7
0x00008c13      a021                   ldy #0x21
0x00008c15      e007                   cpx #0x07
0x00008c17      b00f                   bcs 0x008c28
0x00008c19      c90b                   cmp #0x0b
0x00008c1b      f005                   beq 0x008c22
0x00008c1d      38                     sec
0x00008c1e      e901                   sbc #0x01
0x00008c20      d01e                   bne 0x008c40
0x00008c22      e6b6                   inc 0xb6
0x00008c24      a021                   ldy #0x21
0x00008c26      d018                   bne 0x008c40
0x00008c28      e009                   cpx #0x09
0x00008c2a      d004                   bne 0x008c30
0x00008c2c      e6b6                   inc 0xb6
0x00008c2e      d002                   bne 0x008c32
0x00008c30      a021                   ldy #0x21
0x00008c32      18                     clc
0x00008c33      c910                   cmp #0x10
0x00008c35      d007                   bne 0x008c3e
0x00008c37      a900                   lda #0x00
0x00008c39      85b6                   sta 0xb6
0x00008c3b      a8                     tay
0x00008c3c      f002                   beq 0x008c40
0x00008c3e      6901                   adc #0x01
0x00008c40      85b7                   sta 0xb7
0x00008c42      8d01d4                 sta sym.SID_S1Hi
0x00008c45      8c04d4                 sty sym.SID_Ctl1
0x00008c48      60                     rts
(fcn) fcn.read_jiffy_update_6b_die 19
0x00008c49      a5a2                   lda 0xa2
0x00008c4b      290f                   and #0x0f
0x00008c4d      d00c                   bne 0x008c5b
0x00008c4f      a56b                   lda 0x6b
0x00008c51      f006                   beq 0x008c59
0x00008c53      a900                   lda #0x00
0x00008c55      856b                   sta 0x6b
0x00008c57      f002                   beq 0x008c5b
0x00008c59      e66b                   inc 0x6b
0x00008c5b      60                     rts
0x00008c5c      a515                   lda 0x15
0x00008c5e      d00d                   bne 0x008c6d
0x00008c60      200d91                 jsr fcn.set_volume_and_decay
0x00008c63      208d8d                 jsr fcn.sprite_movement_and_animation_loop
0x00008c66      a940                   lda #0x40
0x00008c68      8516                   sta 0x16
0x00008c6a      e615                   inc 0x15
0x00008c6c      60                     rts
0x00008c6d      c901                   cmp #0x01
0x00008c6f      d01e                   bne 0x008c8f
0x00008c71      a516                   lda 0x16
0x00008c73      d017                   bne 0x008c8c
0x00008c75      a900                   lda #0x00
0x00008c77      a203                   ldx #0x03
0x00008c79      9dd002                 sta 0x02d0,x
0x00008c7c      ca                     dex
0x00008c7d      10fa                   bpl 0x008c79
0x00008c7f      a90e                   lda #0x0e
0x00008c81      8d22d0                 sta sym.VIC_BG_COLOR1
0x00008c84      a907                   lda #0x07
0x00008c86      8517                   sta 0x17
0x00008c88      a910                   lda #0x10
0x00008c8a      d0dc                   bne 0x008c68
0x00008c8c      c616                   dec 0x16
0x00008c8e      60                     rts
0x00008c8f      c902                   cmp #0x02
0x00008c91      d01c                   bne 0x008caf
0x00008c93      a516                   lda 0x16
0x00008c95      d0f5                   bne 0x008c8c
0x00008c97      c617                   dec 0x17
0x00008c99      f0cf                   beq 0x008c6a
0x00008c9b      a517                   lda 0x17
0x00008c9d      18                     clc
0x00008c9e      4a                     lsr a
0x00008c9f      9004                   bcc 0x008ca5
0x00008ca1      a90e                   lda #0x0e
0x00008ca3      d002                   bne 0x008ca7
0x00008ca5      a901                   lda #0x01
0x00008ca7      8d22d0                 sta sym.VIC_BG_COLOR1
0x00008caa      a910                   lda #0x10
0x00008cac      8516                   sta 0x16
0x00008cae      60                     rts
0x00008caf      c903                   cmp #0x03
0x00008cb1      d006                   bne 0x008cb9
0x00008cb3      20f38d                 jsr fcn.check_col_and_stuff
0x00008cb6      e615                   inc 0x15
0x00008cb8      60                     rts
0x00008cb9      20498e                 jsr fcn.lives_related
0x00008cbc      a619                   ldx 0x19
0x00008cbe      f61a                   inc 0x1a,x
0x00008cc0      f61e                   inc 0x1e,x
0x00008cc2      20d78c                 jsr fcn.ready
0x00008cc5      20528d                 jsr loc.player_dead
0x00008cc8      a900                   lda #0x00
0x00008cca      8514                   sta 0x14
0x00008ccc      8515                   sta 0x15
0x00008cce      a902                   lda #0x02
0x00008cd0      8512                   sta 0x12
0x00008cd2      a940                   lda #0x40
0x00008cd4      8513                   sta 0x13
0x00008cd6      60                     rts
(fcn) fcn.ready 123
0x00008cd7      a922                   lda #0x22                      ; 0x22-0x2c reads READY
0x00008cd9      a200                   ldx #0x00
0x00008cdb      9d3f06                 sta 0x063f,x
0x00008cde      18                     clc
0x00008cdf      6901                   adc #0x01
0x00008ce1      e8                     inx
0x00008ce2      e00a                   cpx #0x0a
0x00008ce4      d0f5                   bne 0x008cdb
0x00008ce6      a619                   ldx 0x19
0x00008ce8      b51e                   lda 0x1e,x
0x00008cea      c906                   cmp #0x06
0x00008cec      9008                   bcc 0x008cf6
0x00008cee      c90a                   cmp #0x0a
0x00008cf0      b004                   bcs 0x008cf6
0x00008cf2      a00d                   ldy #0x0d
0x00008cf4      d002                   bne 0x008cf8
0x00008cf6      a00a                   ldy #0x0a
0x00008cf8      845c                   sty 0x5c
0x00008cfa      a000                   ldy #0x00
0x00008cfc      c906                   cmp #0x06
0x00008cfe      b025                   bcs 0x008d25
0x00008d00      8518                   sta 0x18
0x00008d02      a9e2                   lda #0xe2
0x00008d04      852c                   sta 0x2c
0x00008d06      a907                   lda #0x07
0x00008d08      852d                   sta 0x2d                       ; ptr to $07e2
0x00008d0a      a200                   ldx #0x00
0x00008d0c      bd729d                 lda sym.level_symbols,x
0x00008d0f      912c                   sta (0x2c),y                   ; end of level counter?
0x00008d11      e62c                   inc 0x2c
0x00008d13      18                     clc
0x00008d14      6901                   adc #0x01
0x00008d16      912c                   sta (0x2c),y
0x00008d18      e418                   cpx 0x18
0x00008d1a      f035                   beq 0x008d51
0x00008d1c      e8                     inx
0x00008d1d      c62c                   dec 0x2c
0x00008d1f      c62c                   dec 0x2c
0x00008d21      c62c                   dec 0x2c
0x00008d23      d0e7                   bne 0x008d0c
0x00008d25      c912                   cmp #0x12
0x00008d27      9002                   bcc 0x008d2b
0x00008d29      a912                   lda #0x12
0x00008d2b      38                     sec
0x00008d2c      e906                   sbc #0x06
0x00008d2e      8518                   sta 0x18
0x00008d30      38                     sec
0x00008d31      a98a                   lda #0x8a
0x00008d33      e518                   sbc 0x18
0x00008d35      852a                   sta 0x2a
0x00008d37      a99d                   lda #0x9d
0x00008d39      e900                   sbc #0x00
0x00008d3b      852b                   sta 0x2b                       ; $9d8a - (0x18) ptr
0x00008d3d      a200                   ldx #0x00
0x00008d3f      b12a                   lda (0x2a),y
0x00008d41      9dd607                 sta 0x07d6,x                   ; start of level counter?
0x00008d44      18                     clc
0x00008d45      6901                   adc #0x01
0x00008d47      9dd707                 sta 0x07d7,x
0x00008d4a      e8                     inx
0x00008d4b      e8                     inx
0x00008d4c      c8                     iny
0x00008d4d      c007                   cpy #0x07
0x00008d4f      d0ee                   bne 0x008d3f
0x00008d51      60                     rts
 loc.player_dead 7
0x00008d52      208d8d                 jsr fcn.sprite_movement_and_animation_loop
0x00008d55      a619                   ldx 0x19
0x00008d57      d61a                   dec 0x1a,x
(fcn) fcn.update_lives_display 52
0x00008d59      a619                   ldx 0x19
0x00008d5b      b51a                   lda 0x1a,x
0x00008d5d      a200                   ldx #0x00
0x00008d5f      a01b                   ldy #0x1b
0x00008d61      c903                   cmp #0x03
0x00008d63      d00a                   bne 0x008d6f                   ; branch if acc not equal to 3
0x00008d65      8cc807                 sty 0x07c8
0x00008d68      8cc607                 sty 0x07c6
0x00008d6b      8cc407                 sty 0x07c4
0x00008d6e      60                     rts
0x00008d6f      c902                   cmp #0x02
0x00008d71      d006                   bne 0x008d79
0x00008d73      20898d                 jsr 0x8d89
0x00008d76      4c688d                 jmp 0x8d68
0x00008d79      c901                   cmp #0x01
0x00008d7b      d006                   bne 0x008d83
0x00008d7d      20868d                 jsr 0x8d86
0x00008d80      4c6b8d                 jmp 0x8d6b
0x00008d83      8ec407                 stx 0x07c4
0x00008d86      8ec607                 stx 0x07c6
0x00008d89      8ec807                 stx 0x07c8
0x00008d8c      60                     rts
(fcn) fcn.sprite_movement_and_animation_loop 129
0x00008d8d      a901                   lda #0x01
0x00008d8f      856a                   sta 0x6a
0x00008d91      a203                   ldx #0x03
0x00008d93      b54b                   lda 0x4b,x
0x00008d95      205299                 jsr fcn.sprite_movement_and_animation
0x00008d98      ca                     dex
0x00008d99      10f8                   bpl 0x008d93
0x00008d9b      a900                   lda #0x00
0x00008d9d      856a                   sta 0x6a
0x00008d9f      4c1893                 jmp 0x9318
(fcn) fcn.write_nulls_to_screen 11
0x00008da2      a20d                   ldx #0x0d
0x00008da4      a900                   lda #0x00
0x00008da6      9d3d06                 sta 0x063d,x
0x00008da9      ca                     dex
0x00008daa      10fa                   bpl 0x008da6
0x00008dac      60                     rts
(fcn) fcn.read_jiffy_and_write_to_screen 58
0x00008dad      a5a2                   lda 0xa2                       ; read jiffy clock
0x00008daf      290f                   and #0x0f                      ; low nibble only
0x00008db1      d03f                   bne 0x008df2                   ; rts
0x00008db3      a5b9                   lda 0xb9
0x00008db5      d004                   bne 0x008dbb
0x00008db7      e6b9                   inc 0xb9
0x00008db9      d004                   bne 0x008dbf
0x00008dbb      a900                   lda #0x00
0x00008dbd      85b9                   sta 0xb9
0x00008dbf      a519                   lda 0x19
0x00008dc1      f018                   beq 0x008ddb
0x00008dc3      a5b9                   lda 0xb9
0x00008dc5      d004                   bne fcn.write_2_up_to_game_screen
0x00008dc7      aa                     tax
0x00008dc8      a8                     tay
0x00008dc9      f006                   beq 0x008dd1
(fcn) fcn.write_2_up_to_game_screen 16
0x00008dcb      a992                   lda #0x92                      ; 2 character
0x00008dcd      a2b5                   ldx #0xb5
0x00008dcf      a0b0                   ldy #0xb0
0x00008dd1      8d2104                 sta 0x0421
0x00008dd4      8e2204                 stx 0x0422
0x00008dd7      8c2304                 sty 0x0423
0x00008dda      60                     rts
0x00008ddb      a5b9                   lda 0xb9
0x00008ddd      d004                   bne fcn.write_1_up_to_game_screen
0x00008ddf      aa                     tax
0x00008de0      a8                     tay
0x00008de1      f006                   beq 0x008de9
(fcn) fcn.write_1_up_to_game_screen 16
0x00008de3      a991                   lda #0x91                      ; 1 character
0x00008de5      a2b5                   ldx #0xb5
0x00008de7      a0b0                   ldy #0xb0
0x00008de9      8d0404                 sta 0x0404
0x00008dec      8e0504                 stx 0x0405
0x00008def      8c0604                 sty 0x0406
0x00008df2      60                     rts
(fcn) fcn.check_col_and_stuff 69
0x00008df3      201d91                 jsr fcn.write_nulls_to_ram
0x00008df6      a28a                   ldx #0x8a                      ; 138
0x00008df8      953b                   sta 0x3b,x
0x00008dfa      ca                     dex
0x00008dfb      d0fb                   bne 0x008df8
0x00008dfd      203a91                 jsr fcn.color_init
0x00008e00      a619                   ldx 0x19
0x00008e02      b51e                   lda 0x1e,x
0x00008e04      c906                   cmp #0x06
0x00008e06      9002                   bcc 0x008e0a
0x00008e08      a906                   lda #0x06
0x00008e0a      a8                     tay
0x00008e0b      b9059e                 lda 0x9e05,y                   ; load data from rom
0x00008e0e      aa                     tax                            ; use it as an index
0x00008e0f      bdae4d                 lda 0x4dae,x                   ; load data from ram
0x00008e12      8575                   sta 0x75                       ; copy it to zero page
0x00008e14      b90c9e                 lda 0x9e0c,y                   ; load data from rom
0x00008e17      a8                     tay                            ; use it as an index
0x00008e18      a203                   ldx #0x03
0x00008e1a      b9ae4d                 lda 0x4dae,y
0x00008e1d      9571                   sta 0x71,x                     ; more copying of ram to zero page
0x00008e1f      ca                     dex
0x00008e20      10f8                   bpl 0x008e1a                   ; loop 3 times
0x00008e22      a213                   ldx #0x13
0x00008e24      bdbf9b                 lda sym.pac_man_bitmap_ptrs.end,x ; copy rom to zero page
0x00008e27      953c                   sta 0x3c,x
0x00008e29      ca                     dex
0x00008e2a      10f8                   bpl 0x008e24                   ; loop 19 times
0x00008e2c      a000                   ldy #0x00
0x00008e2e      20728e                 jsr fcn.copy_some_rom_data_to_0x87,x
0x00008e31      ad1ed0                 lda sym.VIC_SP_SP_COL          ; check for sprite to sprite collision
0x00008e34      ad1fd0                 lda sym.VIC_SP_BG_COL          ; check for sprite to foreground collision
0x00008e37      60                     rts
(fcn) fcn.init_lives_score_and_unknown_vars 17
0x00008e38      a903                   lda #0x03
0x00008e3a      851a                   sta 0x1a
0x00008e3c      851b                   sta 0x1b
0x00008e3e      a509                   lda 0x09
0x00008e40      851e                   sta 0x1e                       ; copy (0x09) to 0x1e and 0x1f
0x00008e42      851f                   sta 0x1f
0x00008e44      a201                   ldx #0x01                      ; x = 1
0x00008e46      20658e                 jsr fcn.zero_score_and_other_vars
(fcn) fcn.lives_related 28
0x00008e49      206391                 jsr fcn.screen_init
0x00008e4c      20598d                 jsr fcn.update_lives_display
0x00008e4f      a619                   ldx 0x19
0x00008e51      b51e                   lda 0x1e,x
0x00008e53      a8                     tay
0x00008e54      d00a                   bne 0x008e60
0x00008e56      a5a2                   lda 0xa2                       ; read jiffy
0x00008e58      1006                   bpl 0x008e60
0x00008e5a      20728e                 jsr fcn.copy_some_rom_data_to_0x87,x
0x00008e5d      4c638e                 jmp 0x8e63
0x00008e60      c8                     iny
0x00008e61      d0f7                   bne 0x008e5a
0x00008e63      a619                   ldx 0x19
(fcn) fcn.zero_score_and_other_vars 13
0x00008e65      a90f                   lda #0x0f
0x00008e67      9520                   sta 0x20,x
0x00008e69      a900                   lda #0x00
0x00008e6b      952e                   sta 0x2e,x                     ; write zeros
0x00008e6d      9522                   sta 0x22,x
0x00008e6f      9524                   sta 0x24,x
0x00008e71      60                     rts
;-- fcn.copy_some_rom_data_to_0x87_x:
(fcn) fcn.copy_some_rom_data_to_0x87,x 18
0x00008e72      c003                   cpy #0x03
0x00008e74      9002                   bcc 0x008e78                   ; branch if y < 3
0x00008e76      a003                   ldy #0x03
0x00008e78      a202                   ldx #0x02
0x00008e7a      b93e9c                 lda 0x9c3e,y                   ; copy data from rom to zero page
0x00008e7d      9587                   sta 0x87,x
0x00008e7f      c8                     iny
0x00008e80      ca                     dex
0x00008e81      10f7                   bpl 0x008e7a
0x00008e83      60                     rts
(fcn) fcn.more_sound_stuff 186
0x00008e84      a5ac                   lda 0xac
0x00008e86      c901                   cmp #0x01
0x00008e88      d018                   bne 0x008ea2
0x00008e8a      a5ad                   lda 0xad
0x00008e8c      f010                   beq 0x008e9e
0x00008e8e      20498c                 jsr fcn.read_jiffy_update_6b_die
0x00008e91      a203                   ldx #0x03
0x00008e93      b54b                   lda 0x4b,x
0x00008e95      205299                 jsr fcn.sprite_movement_and_animation
0x00008e98      ca                     dex
0x00008e99      10f8                   bpl 0x008e93
0x00008e9b      c6ad                   dec 0xad
0x00008e9d      60                     rts
0x00008e9e      e6ac                   inc 0xac
0x00008ea0      a5ac                   lda 0xac
0x00008ea2      c902                   cmp #0x02
0x00008ea4      d023                   bne 0x008ec9
0x00008ea6      a203                   ldx #0x03
0x00008ea8      a900                   lda #0x00
0x00008eaa      9dd002                 sta 0x02d0,x
0x00008ead      ca                     dex
0x00008eae      10fa                   bpl 0x008eaa
0x00008eb0      a925                   lda #0x25
0x00008eb2      85af                   sta 0xaf
0x00008eb4      85ae                   sta 0xae
0x00008eb6      200d91                 jsr fcn.set_volume_and_decay
0x00008eb9      85b0                   sta 0xb0
0x00008ebb      85aa                   sta 0xaa
0x00008ebd      e6a9                   inc 0xa9
0x00008ebf      a907                   lda #0x07
0x00008ec1      85ab                   sta 0xab
0x00008ec3      a903                   lda #0x03
0x00008ec5      85ac                   sta 0xac
0x00008ec7      d010                   bne 0x008ed9
0x00008ec9      c903                   cmp #0x03
0x00008ecb      f00c                   beq 0x008ed9
0x00008ecd      c904                   cmp #0x04
0x00008ecf      f021                   beq 0x008ef2
0x00008ed1      c905                   cmp #0x05
0x00008ed3      f042                   beq 0x008f17
0x00008ed5      c906                   cmp #0x06
0x00008ed7      f05b                   beq 0x008f34
0x00008ed9      a921                   lda #0x21
0x00008edb      8d04d4                 sta sym.SID_Ctl1
0x00008ede      a5af                   lda 0xaf
0x00008ee0      8d01d4                 sta sym.SID_S1Hi
0x00008ee3      38                     sec
0x00008ee4      e902                   sbc #0x02
0x00008ee6      85af                   sta 0xaf
0x00008ee8      e6b0                   inc 0xb0
0x00008eea      a5b0                   lda 0xb0
0x00008eec      c904                   cmp #0x04
0x00008eee      d043                   bne 0x008f33
0x00008ef0      f022                   beq 0x008f14
0x00008ef2      a921                   lda #0x21
0x00008ef4      8d04d4                 sta sym.SID_Ctl1
0x00008ef7      a5af                   lda 0xaf
0x00008ef9      8d01d4                 sta sym.SID_S1Hi
0x00008efc      18                     clc
0x00008efd      6902                   adc #0x02
0x00008eff      85af                   sta 0xaf
0x00008f01      c6b0                   dec 0xb0
0x00008f03      d02e                   bne 0x008f33
0x00008f05      a5ae                   lda 0xae
0x00008f07      c913                   cmp #0x13
0x00008f09      f026                   beq 0x008f31
0x00008f0b      38                     sec
0x00008f0c      e902                   sbc #0x02
0x00008f0e      85ae                   sta 0xae
0x00008f10      85af                   sta 0xaf
0x00008f12      a903                   lda #0x03
0x00008f14      85ac                   sta 0xac
0x00008f16      60                     rts
0x00008f17      a921                   lda #0x21
0x00008f19      8d04d4                 sta sym.SID_Ctl1
0x00008f1c      a5ae                   lda 0xae
0x00008f1e      8d01d4                 sta sym.SID_S1Hi
0x00008f21      18                     clc
0x00008f22      6902                   adc #0x02
0x00008f24      85ae                   sta 0xae
0x00008f26      c935                   cmp #0x35
0x00008f28      d009                   bne 0x008f33
0x00008f2a      200d91                 jsr fcn.set_volume_and_decay
0x00008f2d      a980                   lda #0x80
0x00008f2f      85b0                   sta 0xb0
0x00008f31      e6ac                   inc 0xac
0x00008f33      60                     rts
0x00008f34      a5b0                   lda 0xb0
0x00008f36      d003                   bne 0x008f3b
0x00008f38      e612                   inc 0x12
0x00008f3a      60                     rts
0x00008f3b      c6b0                   dec 0xb0
0x00008f3d      60                     rts
(fcn) fcn.pacman_collision_draw_points 93
; arg int arg_101h @ sp+0x101
0x00008f3e      a5a9                   lda 0xa9
0x00008f40      f058                   beq 0x008f9a
0x00008f42      a545                   lda 0x45
0x00008f44      852c                   sta 0x2c
0x00008f46      a953                   lda #0x53
0x00008f48      852d                   sta 0x2d
0x00008f4a      a5ab                   lda 0xab
0x00008f4c      f004                   beq 0x008f52
0x00008f4e      c6ab                   dec 0xab
0x00008f50      100c                   bpl 0x008f5e
0x00008f52      a5aa                   lda 0xaa
0x00008f54      c90f                   cmp #0x0f
0x00008f56      f037                   beq 0x008f8f
0x00008f58      e6aa                   inc 0xaa
0x00008f5a      a905                   lda #0x05
0x00008f5c      85ab                   sta 0xab
0x00008f5e      a5aa                   lda 0xaa
0x00008f60      f011                   beq 0x008f73
0x00008f62      c90f                   cmp #0x0f
0x00008f64      f01b                   beq 0x008f81
0x00008f66      aa                     tax
0x00008f67      ca                     dex
0x00008f68      bd004c                 lda 0x4c00,x                   ; some kind of lookup table
0x00008f6b      a8                     tay
0x00008f6c      88                     dey
0x00008f6d      bda79b                 lda 0x9ba7,x                   ; end of pacman
0x00008f70      912c                   sta (0x2c),y
0x00008f72      60                     rts
0x00008f73      a00c                   ldy #0x0c
0x00008f75      a209                   ldx #0x09
0x00008f77      bd889b                 lda 0x9b88,x                   ; upward facing pacman
0x00008f7a      912c                   sta (0x2c),y
0x00008f7c      88                     dey
0x00008f7d      ca                     dex
0x00008f7e      10f7                   bpl 0x008f77
0x00008f80      60                     rts
0x00008f81      a00f                   ldy #0x0f
0x00008f83      a20f                   ldx #0x0f
0x00008f85      bd539c                 lda 0x9c53,x                   ; start of numbers
0x00008f88      912c                   sta (0x2c),y
0x00008f8a      88                     dey
0x00008f8b      ca                     dex
0x00008f8c      10f7                   bpl 0x008f85
0x00008f8e      60                     rts
0x00008f8f      a00f                   ldy #0x0f
0x00008f91      a900                   lda #0x00
0x00008f93      912c                   sta (0x2c),y
0x00008f95      88                     dey
0x00008f96      10fb                   bpl 0x008f93
0x00008f98      85a9                   sta 0xa9
0x00008f9a      60                     rts
(fcn) fcn.blue_ghosts_mode_maybe 203
0x00008f9b      a5bb                   lda 0xbb
0x00008f9d      f010                   beq 0x008faf
0x00008f9f      a5b1                   lda 0xb1
0x00008fa1      d003                   bne 0x008fa6
0x00008fa3      201e90                 jsr fcn.voice_2_sawtooth
0x00008fa6      a5bc                   lda 0xbc
0x00008fa8      f00c                   beq 0x008fb6
0x00008faa      c6bc                   dec 0xbc
0x00008fac      4c0590                 jmp 0x9005
0x00008faf      a5b1                   lda 0xb1
0x00008fb1      d0e7                   bne 0x008f9a
0x00008fb3      4c5895                 jmp 0x9558
0x00008fb6      a619                   ldx 0x19
0x00008fb8      b51e                   lda 0x1e,x
0x00008fba      aa                     tax
0x00008fbb      bd724c                 lda 0x4c72,x
0x00008fbe      c5bb                   cmp 0xbb
0x00008fc0      d037                   bne 0x008ff9
0x00008fc2      a203                   ldx #0x03
0x00008fc4      b58a                   lda 0x8a,x
0x00008fc6      1006                   bpl 0x008fce
0x00008fc8      bd329c                 lda sym.ghost_colors,x
0x00008fcb      9d27d0                 sta sym.VIC_SPR0_COLOR,x       ; set sprite color
0x00008fce      ca                     dex
0x00008fcf      10f3                   bpl 0x008fc4
0x00008fd1      a203                   ldx #0x03
0x00008fd3      b58a                   lda 0x8a,x
0x00008fd5      1012                   bpl 0x008fe9
0x00008fd7      c980                   cmp #0x80
0x00008fd9      f006                   beq 0x008fe1
0x00008fdb      29bb                   and #0xbb
0x00008fdd      f00a                   beq 0x008fe9
0x00008fdf      d004                   bne 0x008fe5
0x00008fe1      a900                   lda #0x00
0x00008fe3      f002                   beq 0x008fe7
0x00008fe5      a920                   lda #0x20
0x00008fe7      958a                   sta 0x8a,x
0x00008fe9      ca                     dex
0x00008fea      10e7                   bpl 0x008fd3
0x00008fec      a900                   lda #0x00
0x00008fee      85bb                   sta 0xbb
0x00008ff0      85ba                   sta 0xba
0x00008ff2      85a3                   sta 0xa3
0x00008ff4      a9a0                   lda #0xa0
0x00008ff6      8569                   sta 0x69
0x00008ff8      60                     rts
0x00008ff9      a5ba                   lda 0xba
0x00008ffb      d006                   bne 0x009003
0x00008ffd      e6bb                   inc 0xbb
0x00008fff      a918                   lda #0x18
0x00009001      85ba                   sta 0xba
0x00009003      c6ba                   dec 0xba
0x00009005      a5bb                   lda 0xbb
0x00009007      4a                     lsr a
0x00009008      9004                   bcc 0x00900e
0x0000900a      a006                   ldy #0x06                      ; blue
0x0000900c      d002                   bne 0x009010
0x0000900e      a001                   ldy #0x01                      ; white
0x00009010      a203                   ldx #0x03
0x00009012      b58a                   lda 0x8a,x
0x00009014      1004                   bpl 0x00901a
0x00009016      98                     tya
0x00009017      9d27d0                 sta sym.VIC_SPR0_COLOR,x       ; set sprite color
0x0000901a      ca                     dex
0x0000901b      10f5                   bpl 0x009012
0x0000901d      60                     rts
(fcn) fcn.voice_2_sawtooth 83
0x0000901e      a5a3                   lda 0xa3
0x00009020      d00e                   bne 0x009030
0x00009022      a905                   lda #0x05
0x00009024      859f                   sta 0x9f
0x00009026      a902                   lda #0x02
0x00009028      859e                   sta 0x9e
0x0000902a      e6a3                   inc 0xa3
0x0000902c      a90e                   lda #0x0e
0x0000902e      859d                   sta 0x9d
0x00009030      a59e                   lda 0x9e
0x00009032      c901                   cmp #0x01
0x00009034      d01f                   bne 0x009055
0x00009036      a59d                   lda 0x9d
0x00009038      c90e                   cmp #0x0e
0x0000903a      d012                   bne 0x00904e
0x0000903c      a59f                   lda 0x9f
0x0000903e      c903                   cmp #0x03
0x00009040      d004                   bne 0x009046
0x00009042      a905                   lda #0x05
0x00009044      859f                   sta 0x9f
0x00009046      c69f                   dec 0x9f
0x00009048      a902                   lda #0x02
0x0000904a      859e                   sta 0x9e
0x0000904c      d013                   bne 0x009061
0x0000904e      38                     sec
0x0000904f      a59d                   lda 0x9d
0x00009051      e903                   sbc #0x03
0x00009053      d011                   bne 0x009066
0x00009055      a59d                   lda 0x9d
0x00009057      c920                   cmp #0x20
0x00009059      d006                   bne 0x009061
0x0000905b      a901                   lda #0x01
0x0000905d      859e                   sta 0x9e
0x0000905f      d0ed                   bne 0x00904e
0x00009061      18                     clc
0x00009062      a59d                   lda 0x9d
0x00009064      6903                   adc #0x03
0x00009066      859d                   sta 0x9d
0x00009068      8d08d4                 sta sym.SID_S2Hi
0x0000906b      a921                   lda #0x21
0x0000906d      8d0bd4                 sta sym.SID_Ctl2               ; voice 2 sawtooth waveform start
0x00009070      60                     rts
(fcn) fcn.voice_2_sawtooth_2 122
0x00009071      a5b2                   lda 0xb2
0x00009073      d004                   bne 0x009079
0x00009075      a997                   lda #0x97
0x00009077      d006                   bne 0x00907f
0x00009079      c964                   cmp #0x64
0x0000907b      d002                   bne 0x00907f
0x0000907d      a997                   lda #0x97
0x0000907f      38                     sec
0x00009080      e903                   sbc #0x03
0x00009082      85b2                   sta 0xb2
0x00009084      8d08d4                 sta sym.SID_S2Hi               ; set voice 2 frequency
0x00009087      a921                   lda #0x21
0x00009089      d0e2                   bne 0x00906d
;-- fcn.sprite_colors_and_sound_2:
0x0000908b      c6a5                   dec 0xa5
0x0000908d      f015                   beq 0x0090a4
0x0000908f      38                     sec
0x00009090      a5a6                   lda 0xa6
0x00009092      e904                   sbc #0x04
0x00009094      85a6                   sta 0xa6
0x00009096      c910                   cmp #0x10
0x00009098      f022                   beq 0x0090bc
0x0000909a      8d01d4                 sta sym.SID_S1Hi
0x0000909d      8d08d4                 sta sym.SID_S2Hi
0x000090a0      a921                   lda #0x21
0x000090a2      d013                   bne 0x0090b7
0x000090a4      a902                   lda #0x02
0x000090a6      85a5                   sta 0xa5
0x000090a8      38                     sec
0x000090a9      a5a6                   lda 0xa6
0x000090ab      e903                   sbc #0x03
0x000090ad      85a6                   sta 0xa6
0x000090af      8d01d4                 sta sym.SID_S1Hi
0x000090b2      8d08d4                 sta sym.SID_S2Hi
0x000090b5      a921                   lda #0x21
0x000090b7      8d0bd4                 sta sym.SID_Ctl2
0x000090ba      d04d                   bne 0x009109
0x000090bc      200d91                 jsr fcn.set_volume_and_decay
0x000090bf      85a4                   sta 0xa4
0x000090c1      8563                   sta 0x63
0x000090c3      84a7                   sty 0xa7
0x000090c5      a90f                   lda #0x0f
0x000090c7      8dc702                 sta 0x02c7
0x000090ca      a203                   ldx #0x03
0x000090cc      bd27d0                 lda sym.VIC_SPR0_COLOR,x
0x000090cf      c9f1                   cmp #0xf1
0x000090d1      f004                   beq 0x0090d7
0x000090d3      ca                     dex
0x000090d4      10f6                   bpl 0x0090cc
0x000090d6      60                     rts
0x000090d7      a900                   lda #0x00
0x000090d9      8563                   sta 0x63
0x000090db      20bd91                 jsr fcn.update_pacman
0x000090de      e664                   inc 0x64
0x000090e0      4c8493                 jmp fcn.pacman_pellet_collision
(fcn) fcn.some_rom_music 42
0x000090e3      a5b3                   lda 0xb3
0x000090e5      f025                   beq 0x00910c
0x000090e7      a6b4                   ldx 0xb4
0x000090e9      e006                   cpx #0x06
0x000090eb      d008                   bne 0x0090f5
0x000090ed      a900                   lda #0x00
0x000090ef      85b3                   sta 0xb3
0x000090f1      85b4                   sta 0xb4
0x000090f3      f014                   beq 0x009109
0x000090f5      a5b5                   lda 0xb5
0x000090f7      d006                   bne 0x0090ff
0x000090f9      bd249d                 lda 0x9d24,x
0x000090fc      4c0291                 jmp 0x9102
0x000090ff      bd2b9d                 lda 0x9d2b,x
0x00009102      e6b4                   inc 0xb4
0x00009104      8d01d4                 sta sym.SID_S1Hi
0x00009107      a921                   lda #0x21
0x00009109      8d04d4                 sta sym.SID_Ctl1               ; sawtooth start
0x0000910c      60                     rts
(fcn) fcn.set_volume_and_decay 16
0x0000910d      a988                   lda #0x88
0x0000910f      8d18d4                 sta sym.SID_Amp                ; set volume to 8, disconnect voice 3
0x00009112      a900                   lda #0x00
0x00009114      8d04d4                 sta sym.SID_Ctl1               ; set voice 1 control to 0
0x00009117      8d0bd4                 sta sym.SID_Ctl2               ; set voice 2 control to 0
0x0000911a      a0ff                   ldy #0xff
0x0000911c      60                     rts
(fcn) fcn.write_nulls_to_ram 29
0x0000911d      a200                   ldx #0x00
0x0000911f      8a                     txa
0x00009120      9d0030                 sta 0x3000,x
0x00009123      9d0031                 sta 0x3100,x
0x00009126      9d0053                 sta 0x5300,x
0x00009129      9d0054                 sta 0x5400,x
0x0000912c      9d0055                 sta 0x5500,x
0x0000912f      9d0056                 sta 0x5600,x
0x00009132      9d0057                 sta 0x5700,x
0x00009135      e8                     inx
0x00009136      d0e8                   bne 0x009120
0x00009138      8a                     txa
0x00009139      60                     rts
(fcn) fcn.color_init 41
0x0000913a      a200                   ldx #0x00
0x0000913c      a90f                   lda #0x0f                      ; light grey
0x0000913e      9d00d8                 sta var.color_ram_start,x
0x00009141      9d00d9                 sta 0xd900,x
0x00009144      9d00da                 sta 0xda00,x
0x00009147      9d00db                 sta 0xdb00,x
0x0000914a      ca                     dex
0x0000914b      d0f1                   bne 0x00913e
0x0000914d      a24f                   ldx #0x4f                      ; 79
0x0000914f      a901                   lda #0x01                      ; white
0x00009151      9d00d8                 sta var.color_ram_start,x
0x00009154      ca                     dex
0x00009155      10fa                   bpl 0x009151
0x00009157      a207                   ldx #0x07                      ; 7 sprites
0x00009159      bd329c                 lda sym.ghost_colors,x         ; load colors from cartridge rom
0x0000915c      9d27d0                 sta sym.VIC_SPR0_COLOR,x       ; start of sprite color ram
0x0000915f      ca                     dex
0x00009160      10f7                   bpl 0x009159
0x00009162      60                     rts
(fcn) fcn.screen_init 30
0x00009163      a200                   ldx #0x00
0x00009165      bd0040                 lda 0x4000,x
0x00009168      9d5004                 sta 0x0450,x                   ; line 3 column 0
0x0000916b      bd0041                 lda 0x4100,x
0x0000916e      9d5005                 sta 0x0550,x                   ; line 7 column 0
0x00009171      bd0042                 lda 0x4200,x
0x00009174      9d5006                 sta 0x0650,x                   ; line 11 column 0
0x00009177      bd0043                 lda 0x4300,x
0x0000917a      9d5007                 sta 0x0750,x                   ; line 15 column 0
0x0000917d      e8                     inx
0x0000917e      d0e5                   bne 0x009165
0x00009180      60                     rts
(fcn) fcn.screen_copy_to_ram_4400 30
0x00009181      a200                   ldx #0x00
0x00009183      bd5004                 lda 0x0450,x
0x00009186      9d0044                 sta 0x4400,x
0x00009189      bd5005                 lda 0x0550,x
0x0000918c      9d0045                 sta 0x4500,x
0x0000918f      bd5006                 lda 0x0650,x
0x00009192      9d0046                 sta 0x4600,x
0x00009195      bd5007                 lda 0x0750,x
0x00009198      9d0047                 sta 0x4700,x
0x0000919b      e8                     inx
0x0000919c      d0e5                   bne 0x009183
0x0000919e      60                     rts
(fcn) fcn.screen_copy_to_ram_4800 30
0x0000919f      a200                   ldx #0x00
0x000091a1      bd5004                 lda 0x0450,x
0x000091a4      9d0048                 sta 0x4800,x
0x000091a7      bd5005                 lda 0x0550,x
0x000091aa      9d0049                 sta 0x4900,x
0x000091ad      bd5006                 lda 0x0650,x
0x000091b0      9d004a                 sta 0x4a00,x
0x000091b3      bd5007                 lda 0x0750,x
0x000091b6      9d004b                 sta 0x4b00,x
0x000091b9      e8                     inx
0x000091ba      d0e5                   bne 0x0091a1
0x000091bc      60                     rts
(fcn) fcn.update_pacman 456
0x000091bd      a566                   lda 0x66
0x000091bf      30fb                   bmi 0x0091bc
0x000091c1      a204                   ldx #0x04
0x000091c3      20de94                 jsr fcn.voice_2_triangle
0x000091c6      18                     clc
0x000091c7      a568                   lda 0x68
0x000091c9      2418                   bit 0x18
0x000091cb      f016                   beq 0x0091e3
0x000091cd      c54f                   cmp 0x4f
0x000091cf      f00e                   beq 0x0091df
0x000091d1      054f                   ora 0x4f
0x000091d3      a8                     tay
0x000091d4      2903                   and #0x03
0x000091d6      f007                   beq 0x0091df
0x000091d8      98                     tya
0x000091d9      290c                   and #0x0c
0x000091db      f002                   beq 0x0091df
0x000091dd      8464                   sty 0x64
0x000091df      a568                   lda 0x68
0x000091e1      854f                   sta 0x4f
0x000091e3      a619                   ldx 0x19
0x000091e5      ad00dc                 lda sym.CIA1_PRA
0x000091e8      290f                   and #0x0f                      ; read low nibble of ciapra, joystick 2 up, down, left, right
0x000091ea      490f                   eor #0x0f
0x000091ec      f01c                   beq 0x00920a
0x000091ee      48                     pha
0x000091ef      a203                   ldx #0x03
0x000091f1      a000                   ldy #0x00
0x000091f3      18                     clc
0x000091f4      4a                     lsr a
0x000091f5      9001                   bcc 0x0091f8
0x000091f7      c8                     iny
0x000091f8      ca                     dex
0x000091f9      10f8                   bpl 0x0091f3
0x000091fb      68                     pla
0x000091fc      c002                   cpy #0x02
0x000091fe      f00a                   beq 0x00920a
0x00009200      8503                   sta 0x03
0x00009202      8568                   sta 0x68
0x00009204      2418                   bit 0x18
0x00009206      f002                   beq 0x00920a
0x00009208      854f                   sta 0x4f
0x0000920a      a54f                   lda 0x4f
0x0000920c      2418                   bit 0x18
0x0000920e      d003                   bne 0x009213
0x00009210      4cf492                 jmp 0x92f4
0x00009213      c901                   cmp #0x01
0x00009215      f012                   beq 0x009229
0x00009217      c902                   cmp #0x02
0x00009219      f03c                   beq 0x009257
0x0000921b      c904                   cmp #0x04
0x0000921d      d003                   bne 0x009222
0x0000921f      4cb992                 jmp 0x92b9
0x00009222      c908                   cmp #0x08
0x00009224      f05f                   beq 0x009285
0x00009226      4c1893                 jmp 0x9318
0x00009229      a563                   lda 0x63
0x0000922b      d025                   bne 0x009252
0x0000922d      c645                   dec 0x45
0x0000922f      c645                   dec 0x45
0x00009231      a562                   lda 0x62
0x00009233      d006                   bne 0x00923b
0x00009235      a903                   lda #0x03
0x00009237      8562                   sta 0x62
0x00009239      d017                   bne 0x009252
0x0000923b      c662                   dec 0x62
0x0000923d      d013                   bne 0x009252
0x0000923f      a545                   lda 0x45
0x00009241      c53f                   cmp 0x3f
0x00009243      f00d                   beq 0x009252
0x00009245      38                     sec
0x00009246      a53c                   lda 0x3c
0x00009248      e928                   sbc #0x28
0x0000924a      853c                   sta 0x3c
0x0000924c      a53d                   lda 0x3d
0x0000924e      e900                   sbc #0x00
0x00009250      853d                   sta 0x3d
0x00009252      a006                   ldy #0x06
0x00009254      4c1d93                 jmp 0x931d
0x00009257      a563                   lda 0x63
0x00009259      d025                   bne 0x009280
0x0000925b      e645                   inc 0x45
0x0000925d      e645                   inc 0x45
0x0000925f      a562                   lda 0x62
0x00009261      c903                   cmp #0x03
0x00009263      d019                   bne 0x00927e
0x00009265      a900                   lda #0x00
0x00009267      8562                   sta 0x62
0x00009269      a545                   lda 0x45
0x0000926b      c53f                   cmp 0x3f
0x0000926d      f011                   beq 0x009280
0x0000926f      18                     clc
0x00009270      a53c                   lda 0x3c
0x00009272      6928                   adc #0x28
0x00009274      853c                   sta 0x3c
0x00009276      a53d                   lda 0x3d
0x00009278      6900                   adc #0x00
0x0000927a      853d                   sta 0x3d
0x0000927c      d002                   bne 0x009280
0x0000927e      e662                   inc 0x62
0x00009280      a008                   ldy #0x08
0x00009282      4c1d93                 jmp 0x931d
0x00009285      a563                   lda 0x63
0x00009287      d02c                   bne 0x0092b5
0x00009289      a54a                   lda 0x4a
0x0000928b      c9ca                   cmp #0xca
0x0000928d      d00a                   bne 0x009299
0x0000928f      a92a                   lda #0x2a
0x00009291      854a                   sta 0x4a
0x00009293      a9df                   lda #0xdf
0x00009295      853c                   sta 0x3c
0x00009297      c63d                   dec 0x3d
0x00009299      e64a                   inc 0x4a
0x0000929b      a53e                   lda 0x3e
0x0000929d      c903                   cmp #0x03
0x0000929f      d012                   bne 0x0092b3
0x000092a1      a900                   lda #0x00
0x000092a3      853e                   sta 0x3e
0x000092a5      a54a                   lda 0x4a
0x000092a7      c540                   cmp 0x40
0x000092a9      f00a                   beq 0x0092b5
0x000092ab      e63c                   inc 0x3c
0x000092ad      d006                   bne 0x0092b5
0x000092af      e63d                   inc 0x3d
0x000092b1      d002                   bne 0x0092b5
0x000092b3      e63e                   inc 0x3e
0x000092b5      a002                   ldy #0x02
0x000092b7      d064                   bne 0x00931d
0x000092b9      a563                   lda 0x63
0x000092bb      d033                   bne 0x0092f0
0x000092bd      a54a                   lda 0x4a
0x000092bf      c92a                   cmp #0x2a
0x000092c1      d00a                   bne 0x0092cd
0x000092c3      a9ca                   lda #0xca
0x000092c5      854a                   sta 0x4a
0x000092c7      a907                   lda #0x07
0x000092c9      853c                   sta 0x3c
0x000092cb      e63d                   inc 0x3d
0x000092cd      c64a                   dec 0x4a
0x000092cf      a53e                   lda 0x3e
0x000092d1      d006                   bne 0x0092d9
0x000092d3      a903                   lda #0x03
0x000092d5      853e                   sta 0x3e
0x000092d7      d017                   bne 0x0092f0
0x000092d9      c63e                   dec 0x3e
0x000092db      d013                   bne 0x0092f0
0x000092dd      a54a                   lda 0x4a
0x000092df      c540                   cmp 0x40
0x000092e1      f00d                   beq 0x0092f0
0x000092e3      38                     sec
0x000092e4      a53c                   lda 0x3c
0x000092e6      e901                   sbc #0x01
0x000092e8      853c                   sta 0x3c
0x000092ea      a53d                   lda 0x3d
0x000092ec      e900                   sbc #0x00
0x000092ee      853d                   sta 0x3d
0x000092f0      a004                   ldy #0x04
0x000092f2      d029                   bne 0x00931d
0x000092f4      a54f                   lda 0x4f
0x000092f6      c901                   cmp #0x01
0x000092f8      d004                   bne 0x0092fe
0x000092fa      a006                   ldy #0x06
0x000092fc      d016                   bne 0x009314
0x000092fe      c902                   cmp #0x02
0x00009300      d004                   bne 0x009306
0x00009302      a008                   ldy #0x08
0x00009304      d00e                   bne 0x009314
0x00009306      c904                   cmp #0x04
0x00009308      d004                   bne 0x00930e
0x0000930a      a004                   ldy #0x04
0x0000930c      d006                   bne 0x009314
0x0000930e      c908                   cmp #0x08
0x00009310      d006                   bne 0x009318
0x00009312      a002                   ldy #0x02
0x00009314      a90a                   lda #0x0a
0x00009316      d01b                   bne 0x009333
0x00009318      a000                   ldy #0x00
0x0000931a      98                     tya
0x0000931b      f016                   beq 0x009333
0x0000931d      a667                   ldx 0x67
0x0000931f      d004                   bne 0x009325
0x00009321      e667                   inc 0x67
0x00009323      d0f3                   bne 0x009318
0x00009325      ca                     dex
0x00009326      bda59b                 lda 0x9ba5,x                   ; end of pac-man bitmaps
0x00009329      e002                   cpx #0x02
0x0000932b      d004                   bne 0x009331
0x0000932d      a2ff                   ldx #0xff
0x0000932f      8667                   stx 0x67
0x00009331      e667                   inc 0x67
0x00009333      aa                     tax
0x00009334      b9b59b                 lda sym.pac_man_bitmap_ptrs,y
0x00009337      852a                   sta 0x2a
0x00009339      c8                     iny
0x0000933a      b9b59b                 lda sym.pac_man_bitmap_ptrs,y
0x0000933d      852b                   sta 0x2b
0x0000933f      8a                     txa
0x00009340      18                     clc
0x00009341      652a                   adc 0x2a
0x00009343      852a                   sta 0x2a
0x00009345      a900                   lda #0x00
0x00009347      652b                   adc 0x2b
0x00009349      852b                   sta 0x2b
0x0000934b      a009                   ldy #0x09
0x0000934d      b12a                   lda (0x2a),y
0x0000934f      990358                 sta 0x5803,y
0x00009352      88                     dey
0x00009353      10f8                   bpl 0x00934d
0x00009355      a900                   lda #0x00
0x00009357      852a                   sta 0x2a
0x00009359      a958                   lda #0x58                      ; ptr to $5800
0x0000935b      852b                   sta 0x2b
0x0000935d      a545                   lda 0x45
0x0000935f      852c                   sta 0x2c
0x00009361      a953                   lda #0x53                      ; ptr to $5345
0x00009363      852d                   sta 0x2d
0x00009365      18                     clc
0x00009366      a54a                   lda 0x4a
0x00009368      8dd402                 sta 0x02d4
0x0000936b      6902                   adc #0x02
0x0000936d      8dd702                 sta 0x02d7
0x00009370      6902                   adc #0x02
0x00009372      8dd602                 sta 0x02d6
0x00009375      6902                   adc #0x02
0x00009377      8dd502                 sta 0x02d5
0x0000937a      a00f                   ldy #0x0f
0x0000937c      b12a                   lda (0x2a),y
0x0000937e      912c                   sta (0x2c),y
0x00009380      88                     dey
0x00009381      10f9                   bpl 0x00937c
;-- loc.rts_4:
0x00009383      60                     rts
(fcn) fcn.pacman_pellet_collision 102
0x00009384      a53e                   lda 0x3e
0x00009386      d060                   bne loc.rts_3
0x00009388      a562                   lda 0x62
0x0000938a      d05c                   bne loc.rts_3
0x0000938c      a54a                   lda 0x4a
0x0000938e      c540                   cmp 0x40
0x00009390      d006                   bne 0x009398
0x00009392      a545                   lda 0x45
0x00009394      c53f                   cmp 0x3f
0x00009396      f0eb                   beq loc.rts_4
0x00009398      a545                   lda 0x45
0x0000939a      853f                   sta 0x3f
0x0000939c      a54a                   lda 0x4a
0x0000939e      8540                   sta 0x40
0x000093a0      a000                   ldy #0x00
0x000093a2      b13c                   lda (0x3c),y
0x000093a4      c901                   cmp #0x01                      ; compare to pellet
0x000093a6      f008                   beq 0x0093b0
0x000093a8      c902                   cmp #0x02                      ; compare to power up (blue ghost thingy)
0x000093aa      d03c                   bne loc.rts_3
0x000093ac      98                     tya
0x000093ad      913c                   sta (0x3c),y
0x000093af      60                     rts
0x000093b0      8554                   sta 0x54
0x000093b2      206d94                 jsr fcn.update_screen_score_and_lives
0x000093b5      a901                   lda #0x01
0x000093b7      85b3                   sta 0xb3
0x000093b9      8565                   sta 0x65
0x000093bb      a900                   lda #0x00
0x000093bd      85b4                   sta 0xb4
0x000093bf      a5b5                   lda 0xb5
0x000093c1      d004                   bne 0x0093c7
0x000093c3      a901                   lda #0x01
0x000093c5      d002                   bne 0x0093c9
0x000093c7      a900                   lda #0x00
0x000093c9      85b5                   sta 0xb5
0x000093cb      a900                   lda #0x00
0x000093cd      a8                     tay
0x000093ce      913c                   sta (0x3c),y
0x000093d0      a619                   ldx 0x19
0x000093d2      f622                   inc 0x22,x
0x000093d4      d002                   bne 0x0093d8
0x000093d6      f624                   inc 0x24,x
0x000093d8      a619                   ldx 0x19
0x000093da      b524                   lda 0x24,x
0x000093dc      f00a                   beq loc.rts_3
0x000093de      b522                   lda 0x22,x
0x000093e0      c904                   cmp #0x04
0x000093e2      d004                   bne loc.rts_3
0x000093e4      a901                   lda #0x01
0x000093e6      8514                   sta 0x14
;-- loc.rts_3:
0x000093e8      60                     rts
(fcn) fcn.calculate_score_maybe 157
; arg int arg_ffh @ sp+0xff
; arg int arg_101h @ sp+0x101
0x000093e9      a619                   ldx 0x19
0x000093eb      b520                   lda 0x20,x
0x000093ed      8518                   sta 0x18
0x000093ef      a645                   ldx 0x45
0x000093f1      a44a                   ldy 0x4a
0x000093f3      a901                   lda #0x01
0x000093f5      2418                   bit 0x18
0x000093f7      f008                   beq 0x009401
0x000093f9      e03c                   cpx #0x3c
0x000093fb      d004                   bne 0x009401
0x000093fd      c03a                   cpy #0x3a
0x000093ff      f027                   beq 0x009428
0x00009401      0a                     asl a
0x00009402      2418                   bit 0x18
0x00009404      f008                   beq 0x00940e
0x00009406      e03c                   cpx #0x3c
0x00009408      d004                   bne 0x00940e
0x0000940a      c0be                   cpy #0xbe
0x0000940c      f01a                   beq 0x009428
0x0000940e      0a                     asl a
0x0000940f      2418                   bit 0x18
0x00009411      f008                   beq 0x00941b
0x00009413      e0a4                   cpx #0xa4
0x00009415      d004                   bne 0x00941b
0x00009417      c03a                   cpy #0x3a
0x00009419      f00d                   beq 0x009428
0x0000941b      0a                     asl a
0x0000941c      2418                   bit 0x18
0x0000941e      f0c8                   beq loc.rts_3
0x00009420      e0a4                   cpx #0xa4
0x00009422      d0c4                   bne loc.rts_3
0x00009424      c0be                   cpy #0xbe
0x00009426      d0c0                   bne loc.rts_3
0x00009428      490f                   eor #0x0f
0x0000942a      2518                   and 0x18
0x0000942c      a619                   ldx 0x19
0x0000942e      9520                   sta 0x20,x
0x00009430      a905                   lda #0x05
0x00009432      8554                   sta 0x54
0x00009434      206d94                 jsr fcn.update_screen_score_and_lives
0x00009437      a901                   lda #0x01
0x00009439      85bb                   sta 0xbb
0x0000943b      a9ff                   lda #0xff
0x0000943d      85a8                   sta 0xa8
0x0000943f      a619                   ldx 0x19
0x00009441      b51e                   lda 0x1e,x
0x00009443      aa                     tax
0x00009444      bd449c                 lda 0x9c44,x
0x00009447      85bc                   sta 0xbc
0x00009449      a203                   ldx #0x03
0x0000944b      b58a                   lda 0x8a,x
0x0000944d      0a                     asl a
0x0000944e      3017                   bmi 0x009467
0x00009450      b58a                   lda 0x8a,x
0x00009452      0980                   ora #0x80
0x00009454      958a                   sta 0x8a,x
0x00009456      4a                     lsr a
0x00009457      4a                     lsr a
0x00009458      4a                     lsr a
0x00009459      b00c                   bcs 0x009467
0x0000945b      293b                   and #0x3b
0x0000945d      f008                   beq 0x009467
0x0000945f      b54b                   lda 0x4b,x                     ; sprite direction
0x00009461      a8                     tay
0x00009462      b9cf4d                 lda 0x4dcf,y
0x00009465      954b                   sta 0x4b,x                     ; set sprite_direction
0x00009467      ca                     dex
0x00009468      10e1                   bpl 0x00944b
0x0000946a      4cd093                 jmp 0x93d0
(fcn) fcn.update_screen_score_and_lives 165
0x0000946d      a900                   lda #0x00
0x0000946f      8556                   sta 0x56
0x00009471      f8                     sed
0x00009472      a519                   lda 0x19
0x00009474      f004                   beq 0x00947a
0x00009476      a24c                   ldx #0x4c
0x00009478      d002                   bne 0x00947c
0x0000947a      a22f                   ldx #0x2f
0x0000947c      a005                   ldy #0x05
0x0000947e      18                     clc
0x0000947f      bd0004                 lda var.start_of_screen_in_game,x
0x00009482      290f                   and #0x0f
0x00009484      6556                   adc 0x56
0x00009486      795000                 adc 0x0050,y
0x00009489      48                     pha
0x0000948a      2910                   and #0x10
0x0000948c      f002                   beq 0x009490
0x0000948e      a901                   lda #0x01
0x00009490      8556                   sta 0x56
0x00009492      68                     pla
0x00009493      0910                   ora #0x10
0x00009495      c910                   cmp #0x10
0x00009497      d012                   bne 0x0094ab
0x00009499      c000                   cpy #0x00
0x0000949b      d003                   bne 0x0094a0
0x0000949d      98                     tya
0x0000949e      f00b                   beq 0x0094ab
0x000094a0      bdff03                 lda 0x03ff,x
0x000094a3      d004                   bne 0x0094a9
0x000094a5      a556                   lda 0x56
0x000094a7      f002                   beq 0x0094ab
0x000094a9      a910                   lda #0x10
0x000094ab      0990                   ora #0x90
0x000094ad      9d0004                 sta var.start_of_screen_in_game,x
0x000094b0      ca                     dex
0x000094b1      88                     dey
0x000094b2      10ca                   bpl 0x00947e
0x000094b4      d8                     cld
0x000094b5      a205                   ldx #0x05
0x000094b7      a900                   lda #0x00
0x000094b9      9550                   sta 0x50,x
0x000094bb      ca                     dex
0x000094bc      10fb                   bpl 0x0094b9
0x000094be      a619                   ldx 0x19
0x000094c0      b51c                   lda 0x1c,x
0x000094c2      d00b                   bne 0x0094cf
0x000094c4      e000                   cpx #0x00
0x000094c6      d008                   bne 0x0094d0
0x000094c8      ad2b04                 lda 0x042b                     ; 10 thousands digit of score display
0x000094cb      c990                   cmp #0x90                      ; if non-zero, extra life!
0x000094cd      d008                   bne 0x0094d7
0x000094cf      60                     rts
0x000094d0      ad4804                 lda 0x0448
0x000094d3      c990                   cmp #0x90
0x000094d5      f0f8                   beq 0x0094cf
0x000094d7      f61c                   inc 0x1c,x
0x000094d9      f61a                   inc 0x1a,x                     ; extra life!
0x000094db      4c598d                 jmp fcn.update_lives_display
(fcn) fcn.voice_2_triangle 122
0x000094de      b546                   lda 0x46,x
0x000094e0      8561                   sta 0x61
0x000094e2      b541                   lda 0x41,x
0x000094e4      8618                   stx 0x18
0x000094e6      a209                   ldx #0x09
0x000094e8      ddd39b                 cmp 0x9bd3,x
0x000094eb      f00f                   beq 0x0094fc
0x000094ed      ca                     dex
0x000094ee      10f8                   bpl 0x0094e8
0x000094f0      a561                   lda 0x61
0x000094f2      a009                   ldy #0x09
0x000094f4      d9dd9b                 cmp sym.3a,y
0x000094f7      f014                   beq 0x00950d
0x000094f9      88                     dey
0x000094fa      10f8                   bpl 0x0094f4
0x000094fc      a009                   ldy #0x09
0x000094fe      a561                   lda 0x61
0x00009500      d9dd9b                 cmp sym.3a,y
0x00009503      f00d                   beq 0x009512
0x00009505      88                     dey
0x00009506      10f8                   bpl 0x009500
0x00009508      a90c                   lda #0x0c
0x0000950a      18                     clc
0x0000950b      9016                   bcc 0x009523
0x0000950d      a903                   lda #0x03
0x0000950f      18                     clc
0x00009510      9011                   bcc 0x009523
0x00009512      8a                     txa
0x00009513      0a                     asl a
0x00009514      aa                     tax
0x00009515      bde79b                 lda 0x9be7,x
0x00009518      852a                   sta 0x2a
0x0000951a      e8                     inx
0x0000951b      bde79b                 lda 0x9be7,x
0x0000951e      852b                   sta 0x2b
0x00009520      b12a                   lda (0x2a),y
0x00009522      38                     sec
0x00009523      a618                   ldx 0x18
0x00009525      8518                   sta 0x18
0x00009527      08                     php
0x00009528      e004                   cpx #0x04
0x0000952a      f028                   beq 0x009554
0x0000952c      b54b                   lda 0x4b,x
0x0000952e      a8                     tay
0x0000952f      a518                   lda 0x18
0x00009531      39c64d                 and 0x4dc6,y
0x00009534      8518                   sta 0x18
0x00009536      b541                   lda 0x41,x
0x00009538      c964                   cmp #0x64
0x0000953a      d018                   bne 0x009554
0x0000953c      b546                   lda 0x46,x
0x0000953e      c976                   cmp #0x76
0x00009540      f004                   beq 0x009546
0x00009542      c982                   cmp #0x82
0x00009544      d00e                   bne 0x009554
0x00009546      b58a                   lda 0x8a,x
0x00009548      3006                   bmi 0x009550
0x0000954a      a518                   lda 0x18
0x0000954c      290e                   and #0x0e
0x0000954e      d002                   bne 0x009552
0x00009550      a901                   lda #0x01
0x00009552      8518                   sta 0x18
0x00009554      a518                   lda 0x18
0x00009556      28                     plp
0x00009557      60                     rts
0x00009558      a900                   lda #0x00
0x0000955a      85a3                   sta 0xa3
0x0000955c      a59c                   lda 0x9c
0x0000955e      d00a                   bne 0x00956a
0x00009560      a928                   lda #0x28
0x00009562      859a                   sta 0x9a
0x00009564      a901                   lda #0x01
0x00009566      859c                   sta 0x9c
0x00009568      859b                   sta 0x9b
0x0000956a      a59b                   lda 0x9b
0x0000956c      c901                   cmp #0x01
0x0000956e      d013                   bne 0x009583
0x00009570      a59a                   lda 0x9a
0x00009572      c940                   cmp #0x40
0x00009574      9006                   bcc 0x00957c
0x00009576      a902                   lda #0x02
0x00009578      859b                   sta 0x9b
0x0000957a      d013                   bne 0x00958f
0x0000957c      a558                   lda 0x58
0x0000957e      18                     clc
0x0000957f      659a                   adc 0x9a
0x00009581      d011                   bne 0x009594
0x00009583      a59a                   lda 0x9a
0x00009585      c928                   cmp #0x28
0x00009587      b006                   bcs 0x00958f
0x00009589      a901                   lda #0x01
0x0000958b      859b                   sta 0x9b
0x0000958d      d0ed                   bne 0x00957c
0x0000958f      38                     sec
0x00009590      a59a                   lda 0x9a
0x00009592      e558                   sbc 0x58
0x00009594      859a                   sta 0x9a
0x00009596      8d08d4                 sta sym.SID_S2Hi
0x00009599      a911                   lda #0x11
0x0000959b      8d0bd4                 sta sym.SID_Ctl2               ; triangle waveform, start attack, decay, sustain
0x0000959e      60                     rts
(fcn) fcn.blink_power_ups 11
0x0000959f      a5a2                   lda 0xa2
0x000095a1      290f                   and #0x0f
0x000095a3      f005                   beq fcn.draw_power_ups
0x000095a5      c908                   cmp #0x08
0x000095a7      f028                   beq 0x0095d1
0x000095a9      60                     rts
(fcn) fcn.draw_power_ups 43
0x000095aa      a002                   ldy #0x02                      ; $02 is the character code for the circle that let's pac-man eat ghosts
0x000095ac      a619                   ldx 0x19
0x000095ae      b520                   lda 0x20,x
0x000095b0      8518                   sta 0x18
0x000095b2      a901                   lda #0x01
0x000095b4      2418                   bit 0x18
0x000095b6      f003                   beq 0x0095bb
0x000095b8      8ccb04                 sty 0x04cb
0x000095bb      0a                     asl a
0x000095bc      2418                   bit 0x18
0x000095be      f003                   beq 0x0095c3
0x000095c0      8cec04                 sty 0x04ec
0x000095c3      0a                     asl a
0x000095c4      2418                   bit 0x18
0x000095c6      f003                   beq 0x0095cb
0x000095c8      8cd306                 sty 0x06d3
0x000095cb      0a                     asl a
0x000095cc      2418                   bit 0x18
0x000095ce      d00c                   bne 0x0095dc
0x000095d0      60                     rts
0x000095d1      a000                   ldy #0x00                      ; $00 is blank, make it flash
0x000095d3      8ccb04                 sty 0x04cb
0x000095d6      8cec04                 sty 0x04ec
0x000095d9      8cd306                 sty 0x06d3
0x000095dc      8cf406                 sty 0x06f4
0x000095df      60                     rts
(fcn) fcn.ghost_position_related_maybe 55
0x000095e0      d671                   dec 0x71,x
0x000095e2      f003                   beq 0x0095e7
0x000095e4      a9ff                   lda #0xff
0x000095e6      60                     rts
0x000095e7      b56c                   lda 0x6c,x
0x000095e9      c903                   cmp #0x03
0x000095eb      d004                   bne 0x0095f1
0x000095ed      a9ff                   lda #0xff
0x000095ef      956c                   sta 0x6c,x
0x000095f1      f66c                   inc 0x6c,x
0x000095f3      a419                   ldy 0x19
0x000095f5      b91e00                 lda 0x001e,y
0x000095f8      c906                   cmp #0x06
0x000095fa      9002                   bcc 0x0095fe
0x000095fc      a906                   lda #0x06
0x000095fe      a8                     tay
0x000095ff      e004                   cpx #0x04
0x00009601      d005                   bne 0x009608
0x00009603      b9059e                 lda 0x9e05,y
0x00009606      1003                   bpl 0x00960b
0x00009608      b90c9e                 lda 0x9e0c,y
0x0000960b      18                     clc
0x0000960c      756c                   adc 0x6c,x
0x0000960e      a8                     tay
0x0000960f      b9ae4d                 lda 0x4dae,y
0x00009612      9571                   sta 0x71,x
0x00009614      a900                   lda #0x00
0x00009616      60                     rts
(fcn) fcn.timed_cmp 79
0x00009617      a5a2                   lda 0xa2                       ; read jiffy
0x00009619      2907                   and #0x07                      ; low 3 bits
0x0000961b      d006                   bne 0x009623
0x0000961d      a569                   lda 0x69
0x0000961f      f002                   beq 0x009623
0x00009621      c669                   dec 0x69
0x00009623      a619                   ldx 0x19
0x00009625      b524                   lda 0x24,x
0x00009627      f009                   beq 0x009632
0x00009629      a203                   ldx #0x03
0x0000962b      206696                 jsr fcn.cmp_8a
0x0000962e      a905                   lda #0x05
0x00009630      d01d                   bne 0x00964f
0x00009632      b522                   lda 0x22,x
0x00009634      c9f0                   cmp #0xf0
0x00009636      b0f1                   bcs 0x009629
0x00009638      c9e0                   cmp #0xe0
0x0000963a      9009                   bcc 0x009645
0x0000963c      a202                   ldx #0x02
0x0000963e      206696                 jsr fcn.cmp_8a
0x00009641      a904                   lda #0x04
0x00009643      d00a                   bne 0x00964f
0x00009645      c9b0                   cmp #0xb0
0x00009647      9004                   bcc 0x00964d
0x00009649      a903                   lda #0x03
0x0000964b      d002                   bne 0x00964f
0x0000964d      a902                   lda #0x02
0x0000964f      8558                   sta 0x58
0x00009651      a203                   ldx #0x03
0x00009653      b58a                   lda 0x8a,x
0x00009655      c908                   cmp #0x08
0x00009657      f006                   beq 0x00965f
0x00009659      c910                   cmp #0x10
0x0000965b      f002                   beq 0x00965f
0x0000965d      d003                   bne 0x009662
0x0000965f      20699a                 jsr fcn.sprite_direction_compare_2
0x00009662      ca                     dex
0x00009663      10ee                   bpl 0x009653
0x00009665      60                     rts
(fcn) fcn.cmp_8a 24
0x00009666      b58a                   lda 0x8a,x
0x00009668      c908                   cmp #0x08
0x0000966a      f008                   beq 0x009674
0x0000966c      c910                   cmp #0x10
0x0000966e      f004                   beq 0x009674
0x00009670      c920                   cmp #0x20
0x00009672      d004                   bne 0x009678
0x00009674      a902                   lda #0x02
0x00009676      958a                   sta 0x8a,x
0x00009678      ca                     dex
0x00009679      10eb                   bpl fcn.cmp_8a
0x0000967b      8669                   stx 0x69
0x0000967d      60                     rts
(fcn) fcn.draw_bonus 112
0x0000967e      a55d                   lda 0x5d
0x00009680      f014                   beq 0x009696
0x00009682      a55e                   lda 0x5e
0x00009684      d00d                   bne 0x009693
0x00009686      a900                   lda #0x00
0x00009688      855d                   sta 0x5d
0x0000968a      a204                   ldx #0x04
0x0000968c      9d4106                 sta 0x0641,x
0x0000968f      ca                     dex
0x00009690      10fa                   bpl 0x00968c
0x00009692      60                     rts
0x00009693      c65e                   dec 0x5e
0x00009695      60                     rts
0x00009696      a55b                   lda 0x5b
0x00009698      d03a                   bne 0x0096d4
0x0000969a      a619                   ldx 0x19
0x0000969c      b522                   lda 0x22,x
0x0000969e      a8                     tay
0x0000969f      b52e                   lda 0x2e,x
0x000096a1      f005                   beq 0x0096a8
0x000096a3      c901                   cmp #0x01
0x000096a5      f005                   beq 0x0096ac
0x000096a7      60                     rts
0x000096a8      c050                   cpy #0x50
0x000096aa      f004                   beq 0x0096b0
0x000096ac      c0a0                   cpy #0xa0
0x000096ae      d0e5                   bne 0x009695
0x000096b0      f62e                   inc 0x2e,x
0x000096b2      b51e                   lda 0x1e,x
0x000096b4      c90c                   cmp #0x0c
0x000096b6      9002                   bcc 0x0096ba
0x000096b8      a90c                   lda #0x0c
0x000096ba      aa                     tax
0x000096bb      bd729d                 lda sym.level_symbols,x
0x000096be      8d4306                 sta 0x0643
0x000096c1      18                     clc
0x000096c2      6901                   adc #0x01
0x000096c4      8d4406                 sta 0x0644
0x000096c7      a901                   lda #0x01
0x000096c9      855b                   sta 0x5b
0x000096cb      a9c0                   lda #0xc0
0x000096cd      8559                   sta 0x59
0x000096cf      a902                   lda #0x02
0x000096d1      855a                   sta 0x5a
0x000096d3      60                     rts
0x000096d4      a55a                   lda 0x5a
0x000096d6      d00f                   bne 0x0096e7
0x000096d8      a559                   lda 0x59
0x000096da      d00b                   bne 0x0096e7
0x000096dc      a900                   lda #0x00
0x000096de      8d4306                 sta 0x0643
0x000096e1      8d4406                 sta 0x0644
0x000096e4      855b                   sta 0x5b
0x000096e6      60                     rts
0x000096e7      c659                   dec 0x59
0x000096e9      d002                   bne 0x0096ed
0x000096eb      c65a                   dec 0x5a
0x000096ed      60                     rts
(fcn) fcn.set_sprite_direction_2 154
0x000096ee      a900                   lda #0x00
0x000096f0      85b1                   sta 0xb1
0x000096f2      a203                   ldx #0x03
0x000096f4      b58a                   lda 0x8a,x
0x000096f6      c944                   cmp #0x44
0x000096f8      f044                   beq 0x00973e
0x000096fa      0a                     asl a
0x000096fb      1041                   bpl 0x00973e
0x000096fd      e4a7                   cpx 0xa7
0x000096ff      f03d                   beq 0x00973e
0x00009701      e6b1                   inc 0xb1
0x00009703      b546                   lda 0x46,x
0x00009705      a8                     tay
0x00009706      b541                   lda 0x41,x
0x00009708      c07c                   cpy #0x7c
0x0000970a      d01c                   bne 0x009728
0x0000970c      c964                   cmp #0x64
0x0000970e      d018                   bne 0x009728
0x00009710      b54b                   lda 0x4b,x                     ; sprite direction
0x00009712      c901                   cmp #0x01                      ; compare to up
0x00009714      d008                   bne 0x00971e
0x00009716      a904                   lda #0x04
0x00009718      954b                   sta 0x4b,x                     ; set sprite direction left
0x0000971a      b541                   lda 0x41,x
0x0000971c      d00a                   bne 0x009728
0x0000971e      a944                   lda #0x44
0x00009720      958a                   sta 0x8a,x
0x00009722      a9ff                   lda #0xff
0x00009724      958e                   sta 0x8e,x
0x00009726      d016                   bne 0x00973e
0x00009728      20de94                 jsr fcn.voice_2_triangle
0x0000972b      900c                   bcc 0x009739
0x0000972d      18                     clc
0x0000972e      a97c                   lda #0x7c
0x00009730      957e                   sta 0x7e,x
0x00009732      a964                   lda #0x64
0x00009734      9582                   sta 0x82,x
0x00009736      20e999                 jsr fcn.random_sprite_movement
0x00009739      b54b                   lda 0x4b,x
0x0000973b      205299                 jsr fcn.sprite_movement_and_animation
0x0000973e      ca                     dex
0x0000973f      10b3                   bpl 0x0096f4
0x00009741      a5b1                   lda 0xb1
0x00009743      d006                   bne 0x00974b
0x00009745      a900                   lda #0x00
0x00009747      85b2                   sta 0xb2
0x00009749      f007                   beq 0x009752
0x0000974b      a5a4                   lda 0xa4
0x0000974d      d003                   bne 0x009752
0x0000974f      207190                 jsr fcn.voice_2_sawtooth_2
0x00009752      a203                   ldx #0x03
0x00009754      b58a                   lda 0x8a,x
0x00009756      18                     clc
0x00009757      4a                     lsr a
0x00009758      4a                     lsr a
0x00009759      4a                     lsr a
0x0000975a      9028                   bcc 0x009784
0x0000975c      b58a                   lda 0x8a,x
0x0000975e      0a                     asl a
0x0000975f      1006                   bpl 0x009767
0x00009761      20d197                 jsr fcn.sprite_direction_down
0x00009764      4c8497                 jmp 0x9784
0x00009767      a5a2                   lda 0xa2                       ; read jiffy
0x00009769      2903                   and #0x03
0x0000976b      d017                   bne 0x009784
0x0000976d      e003                   cpx #0x03
0x0000976f      d006                   bne 0x009777
0x00009771      20c797                 jsr 0x97c7                     ; fcn.sprite_direction_left_or_right+0xa
0x00009774      4c8497                 jmp 0x9784
0x00009777      e002                   cpx #0x02
0x00009779      d006                   bne 0x009781
0x0000977b      20bd97                 jsr fcn.sprite_direction_left_or_right
0x0000977e      4c8497                 jmp 0x9784
0x00009781      208897                 jsr fcn.sprite_direction_left_right_or_up
0x00009784      ca                     dex
0x00009785      10cd                   bpl 0x009754
0x00009787      60                     rts
(fcn) fcn.sprite_direction_left_right_or_up 40
; arg int arg_101h @ sp+0x101
0x00009788      b541                   lda 0x41,x
0x0000978a      c964                   cmp #0x64
0x0000978c      d01b                   bne loc.up
0x0000978e      b58a                   lda 0x8a,x
0x00009790      d004                   bne 0x009796
0x00009792      a901                   lda #0x01
0x00009794      d00c                   bne loc.left
0x00009796      2980                   and #0x80                      ; high bit only
0x00009798      0902                   ora #0x02                      ; set the 2 bit
0x0000979a      1006                   bpl loc.left
0x0000979c      8569                   sta 0x69
;-- loc.right:
0x0000979e      a008                   ldy #0x08                      ; right
0x000097a0      d002                   bne 0x0097a4
;-- loc.left:
0x000097a2      a004                   ldy #0x04                      ; left
0x000097a4      944b                   sty 0x4b,x                     ; sprite direction
0x000097a6      958a                   sta 0x8a,x
0x000097a8      60                     rts
;-- loc.up:
0x000097a9      a901                   lda #0x01                      ; up
;-- loc.sta_4b:
0x000097ab      954b                   sta 0x4b,x
0x000097ad      4c5299                 jmp fcn.sprite_movement_and_animation
0x000097b0      b58a                   lda 0x8a,x
0x000097b2      290f                   and #0x0f                      ; clear high nibble
0x000097b4      958a                   sta 0x8a,x
0x000097b6      bd329c                 lda sym.ghost_colors,x
0x000097b9      9d27d0                 sta sym.VIC_SPR0_COLOR,x
0x000097bc      60                     rts
(fcn) fcn.sprite_direction_left_or_right 25
0x000097bd      b546                   lda 0x46,x
0x000097bf      c97c                   cmp #0x7c
0x000097c1      f0c5                   beq fcn.sprite_direction_left_right_or_up
0x000097c3      a908                   lda #0x08                      ; set direction to right
0x000097c5      d0e4                   bne loc.sta_4b
0x000097c7      b546                   lda 0x46,x
0x000097c9      c97c                   cmp #0x7c
0x000097cb      f0bb                   beq fcn.sprite_direction_left_right_or_up
0x000097cd      a904                   lda #0x04                      ; set direction to left
0x000097cf      d0da                   bne loc.sta_4b
(fcn) fcn.sprite_direction_down 68
; arg int arg_101h @ sp+0x101
0x000097d1      b541                   lda 0x41,x
0x000097d3      c974                   cmp #0x74
0x000097d5      d00a                   bne 0x0097e1
0x000097d7      e002                   cpx #0x02
0x000097d9      f00a                   beq 0x0097e5
0x000097db      e003                   cpx #0x03
0x000097dd      f00e                   beq 0x0097ed
0x000097df      d0cf                   bne 0x0097b0
0x000097e1      a902                   lda #0x02                      ; set direction down
0x000097e3      d0c6                   bne loc.sta_4b
0x000097e5      b546                   lda 0x46,x
0x000097e7      c970                   cmp #0x70
0x000097e9      d0e2                   bne 0x0097cd
0x000097eb      f0c3                   beq 0x0097b0
0x000097ed      b546                   lda 0x46,x
0x000097ef      c988                   cmp #0x88
0x000097f1      d0d0                   bne 0x0097c3
0x000097f3      f0bb                   beq 0x0097b0
(fcn) fcn.set_sprite_direction 49
0x000097f5      a201                   ldx #0x01
0x000097f7      b58a                   lda 0x8a,x
0x000097f9      297f                   and #0x7f                      ; clear highest bit
0x000097fb      d023                   bne 0x009820
0x000097fd      b586                   lda 0x86,x
0x000097ff      f008                   beq 0x009809
0x00009801      d686                   dec 0x86,x
0x00009803      202698                 jsr fcn.sprite_direction_up_or_down
0x00009806      4c2098                 jmp 0x9820
0x00009809      e003                   cpx #0x03
0x0000980b      d006                   bne 0x009813
0x0000980d      20c797                 jsr 0x97c7                     ; fcn.sprite_direction_left_or_right+0xa
0x00009810      4c2098                 jmp 0x9820
0x00009813      e002                   cpx #0x02
0x00009815      d006                   bne 0x00981d
0x00009817      20bd97                 jsr fcn.sprite_direction_left_or_right
0x0000981a      4c2098                 jmp 0x9820
0x0000981d      208897                 jsr fcn.sprite_direction_left_right_or_up
0x00009820      e8                     inx
0x00009821      e004                   cpx #0x04
0x00009823      d0d2                   bne 0x0097f7
0x00009825      60                     rts
(fcn) fcn.sprite_direction_up_or_down 31
0x00009826      b54b                   lda 0x4b,x                     ; sprite direction
0x00009828      c901                   cmp #0x01                      ; compare to up
0x0000982a      d00a                   bne 0x009836
0x0000982c      b541                   lda 0x41,x
0x0000982e      c970                   cmp #0x70
0x00009830      d00e                   bne 0x009840
0x00009832      a902                   lda #0x02
0x00009834      d008                   bne 0x00983e
0x00009836      b541                   lda 0x41,x
0x00009838      c978                   cmp #0x78
0x0000983a      d004                   bne 0x009840
0x0000983c      a901                   lda #0x01
0x0000983e      954b                   sta 0x4b,x                     ; set sprite direction to up
0x00009840      b54b                   lda 0x4b,x
0x00009842      4c5299                 jmp fcn.sprite_movement_and_animation
(fcn) fcn.buncha_randomness_and_lut_stuff_and_triangle 269
0x00009845      b58a                   lda 0x8a,x
0x00009847      1006                   bpl 0x00984f
0x00009849      4a                     lsr a
0x0000984a      4a                     lsr a
0x0000984b      4a                     lsr a
0x0000984c      9010                   bcc 0x00985e
0x0000984e      60                     rts
0x0000984f      c901                   cmp #0x01
0x00009851      f024                   beq 0x009877
0x00009853      c902                   cmp #0x02
0x00009855      d00a                   bne 0x009861
0x00009857      a569                   lda 0x69
0x00009859      d003                   bne 0x00985e
0x0000985b      4c1599                 jmp 0x9915
0x0000985e      4c3f99                 jmp 0x993f
0x00009861      c908                   cmp #0x08
0x00009863      d003                   bne 0x009868
0x00009865      4cc898                 jmp 0x98c8
0x00009868      c910                   cmp #0x10
0x0000986a      d003                   bne 0x00986f
0x0000986c      4cea98                 jmp 0x98ea
0x0000986f      c920                   cmp #0x20
0x00009871      d003                   bne 0x009876
0x00009873      4c1599                 jmp 0x9915
0x00009876      60                     rts
0x00009877      20de94                 jsr fcn.voice_2_triangle
0x0000987a      9003                   bcc 0x00987f
0x0000987c      18                     clc
0x0000987d      f68e                   inc 0x8e,x
0x0000987f      8a                     txa
0x00009880      0a                     asl a
0x00009881      a8                     tay
0x00009882      b9329d                 lda sym.4c_ptrs,y
0x00009885      852a                   sta 0x2a
0x00009887      c8                     iny
0x00009888      b9329d                 lda sym.4c_ptrs,y
0x0000988b      852b                   sta 0x2b
0x0000988d      b58e                   lda 0x8e,x
0x0000988f      a8                     tay
0x00009890      b12a                   lda (0x2a),y
0x00009892      c90f                   cmp #0x0f
0x00009894      d02d                   bne 0x0098c3
0x00009896      e000                   cpx #0x00
0x00009898      d007                   bne 0x0098a1
0x0000989a      a950                   lda #0x50
0x0000989c      8569                   sta 0x69
0x0000989e      4c3b99                 jmp 0x993b
0x000098a1      a908                   lda #0x08
0x000098a3      958a                   sta 0x8a,x
0x000098a5      a900                   lda #0x00
0x000098a7      957a                   sta 0x7a,x
0x000098a9      ad1bd4                 lda sym.SID_RANDOM
0x000098ac      290f                   and #0x0f                      ; low nibble only
0x000098ae      9576                   sta 0x76,x
0x000098b0      0a                     asl a
0x000098b1      a8                     tay
0x000098b2      b93a9d                 lda 0x9d3a,y
0x000098b5      957e                   sta 0x7e,x
0x000098b7      c8                     iny
0x000098b8      b93a9d                 lda 0x9d3a,y
0x000098bb      9582                   sta 0x82,x
0x000098bd      a996                   lda #0x96
0x000098bf      9586                   sta 0x86,x
0x000098c1      d005                   bne 0x0098c8
0x000098c3      954b                   sta 0x4b,x                     ; set sprite direction
0x000098c5      4c5299                 jmp fcn.sprite_movement_and_animation
0x000098c8      b586                   lda 0x86,x
0x000098ca      d003                   bne 0x0098cf
0x000098cc      4c1599                 jmp 0x9915
0x000098cf      20de94                 jsr fcn.voice_2_triangle
0x000098d2      b003                   bcs 0x0098d7
0x000098d4      4c5099                 jmp 0x9950
0x000098d7      18                     clc
0x000098d8      20e999                 jsr fcn.random_sprite_movement
0x000098db      b596                   lda 0x96,x
0x000098dd      d0f5                   bne 0x0098d4
0x000098df      b592                   lda 0x92,x
0x000098e1      d0f1                   bne 0x0098d4
0x000098e3      a910                   lda #0x10
0x000098e5      958a                   sta 0x8a,x
0x000098e7      18                     clc
0x000098e8      900c                   bcc 0x0098f6
0x000098ea      b586                   lda 0x86,x
0x000098ec      f027                   beq 0x009915
0x000098ee      20de94                 jsr fcn.voice_2_triangle
0x000098f1      9003                   bcc 0x0098f6
0x000098f3      18                     clc
0x000098f4      f67a                   inc 0x7a,x
0x000098f6      b576                   lda 0x76,x
0x000098f8      a8                     tay
0x000098f9      b9629d                 lda 0x9d62,y
0x000098fc      757a                   adc 0x7a,x
0x000098fe      a8                     tay
0x000098ff      b9ae4c                 lda 0x4cae,y
0x00009902      d00c                   bne 0x009910
0x00009904      957a                   sta 0x7a,x
0x00009906      b576                   lda 0x76,x
0x00009908      a8                     tay
0x00009909      b9629d                 lda 0x9d62,y
0x0000990c      a8                     tay
0x0000990d      b9ae4c                 lda 0x4cae,y
0x00009910      954b                   sta 0x4b,x
0x00009912      4c5099                 jmp 0x9950
0x00009915      a920                   lda #0x20
0x00009917      958a                   sta 0x8a,x
0x00009919      8a                     txa
0x0000991a      0a                     asl a
0x0000991b      a8                     tay
0x0000991c      b95a9d                 lda 0x9d5a,y
0x0000991f      957e                   sta 0x7e,x
0x00009921      c8                     iny
0x00009922      b95a9d                 lda 0x9d5a,y
0x00009925      9582                   sta 0x82,x
0x00009927      20de94                 jsr fcn.voice_2_triangle
0x0000992a      9024                   bcc 0x009950
0x0000992c      18                     clc
0x0000992d      20e999                 jsr fcn.random_sprite_movement
0x00009930      b596                   lda 0x96,x
0x00009932      d01c                   bne 0x009950
0x00009934      b592                   lda 0x92,x
0x00009936      d018                   bne 0x009950
0x00009938      4ca198                 jmp 0x98a1
0x0000993b      a902                   lda #0x02
0x0000993d      958a                   sta 0x8a,x
0x0000993f      a54a                   lda 0x4a
0x00009941      957e                   sta 0x7e,x
0x00009943      a545                   lda 0x45
0x00009945      9582                   sta 0x82,x
0x00009947      20de94                 jsr fcn.voice_2_triangle
0x0000994a      9004                   bcc 0x009950
0x0000994c      18                     clc
0x0000994d      20e999                 jsr fcn.random_sprite_movement
0x00009950      b54b                   lda 0x4b,x
(fcn) fcn.sprite_movement_and_animation 151
0x00009952      c901                   cmp #0x01                      ; up direction
0x00009954      d00c                   bne 0x009962
0x00009956      a46a                   ldy 0x6a
0x00009958      d004                   bne 0x00995e
0x0000995a      d641                   dec 0x41,x
0x0000995c      d641                   dec 0x41,x
0x0000995e      a900                   lda #0x00
0x00009960      f02d                   beq 0x00998f
0x00009962      c902                   cmp #0x02                      ; down direction
0x00009964      d00c                   bne 0x009972
0x00009966      a46a                   ldy 0x6a
0x00009968      d004                   bne 0x00996e
0x0000996a      f641                   inc 0x41,x
0x0000996c      f641                   inc 0x41,x
0x0000996e      a90a                   lda #0x0a
0x00009970      d01d                   bne 0x00998f
0x00009972      c904                   cmp #0x04                      ; left
0x00009974      d00a                   bne 0x009980
0x00009976      a46a                   ldy 0x6a
0x00009978      d002                   bne 0x00997c
0x0000997a      d646                   dec 0x46,x
0x0000997c      a914                   lda #0x14
0x0000997e      d00f                   bne 0x00998f
0x00009980      c908                   cmp #0x08                      ; right
0x00009982      d00a                   bne 0x00998e
0x00009984      a46a                   ldy 0x6a
0x00009986      d002                   bne 0x00998a
0x00009988      f646                   inc 0x46,x
0x0000998a      a91e                   lda #0x1e
0x0000998c      d001                   bne 0x00998f
0x0000998e      60                     rts
0x0000998f      b48a                   ldy 0x8a,x
0x00009991      1002                   bpl 0x009995
0x00009993      a928                   lda #0x28
0x00009995      a8                     tay
0x00009996      b58a                   lda 0x8a,x
0x00009998      0a                     asl a
0x00009999      300d                   bmi 0x0099a8
0x0000999b      98                     tya
0x0000999c      a46b                   ldy 0x6b
0x0000999e      f004                   beq 0x0099a4
0x000099a0      a0aa                   ldy #0xaa
0x000099a2      d008                   bne 0x0099ac
0x000099a4      a054                   ldy #0x54
0x000099a6      d004                   bne 0x0099ac
0x000099a8      a932                   lda #0x32
0x000099aa      a000                   ldy #0x00
0x000099ac      8c1c58                 sty 0x581c
0x000099af      18                     clc
0x000099b0      6910                   adc #0x10
0x000099b2      852a                   sta 0x2a
0x000099b4      a900                   lda #0x00
0x000099b6      699b                   adc #0x9b
0x000099b8      852b                   sta 0x2b
0x000099ba      a009                   ldy #0x09
0x000099bc      b12a                   lda (0x2a),y
0x000099be      991258                 sta 0x5812,y
0x000099c1      88                     dey
0x000099c2      10f8                   bpl 0x0099bc
0x000099c4      a910                   lda #0x10
0x000099c6      852a                   sta 0x2a
0x000099c8      a958                   lda #0x58
0x000099ca      852b                   sta 0x2b                       ; $5810 ptr
0x000099cc      b546                   lda 0x46,x                     ; at $5810 there is the current pacman bitmap
0x000099ce      9dd002                 sta 0x02d0,x
0x000099d1      b541                   lda 0x41,x
0x000099d3      852c                   sta 0x2c
0x000099d5      a954                   lda #0x54                      ; $54xx ptr
0x000099d7      852d                   sta 0x2d                       ; at $5400-57ff there are sprite bitmaps moving across ram
0x000099d9      8a                     txa
0x000099da      18                     clc
0x000099db      652d                   adc 0x2d
0x000099dd      852d                   sta 0x2d
0x000099df      a00f                   ldy #0x0f
0x000099e1      b12a                   lda (0x2a),y
0x000099e3      912c                   sta (0x2c),y
0x000099e5      88                     dey
0x000099e6      10f9                   bpl 0x0099e1
0x000099e8      60                     rts
(fcn) fcn.random_sprite_movement 128
0x000099e9      b541                   lda 0x41,x
0x000099eb      d582                   cmp 0x82,x
0x000099ed      f012                   beq 0x009a01
0x000099ef      9008                   bcc 0x0099f9
0x000099f1      b58a                   lda 0x8a,x
0x000099f3      3008                   bmi 0x0099fd
0x000099f5      a901                   lda #0x01
0x000099f7      d00a                   bne 0x009a03
0x000099f9      b58a                   lda 0x8a,x
0x000099fb      30f8                   bmi 0x0099f5
0x000099fd      a902                   lda #0x02
0x000099ff      d002                   bne 0x009a03
0x00009a01      a900                   lda #0x00
0x00009a03      9592                   sta 0x92,x
0x00009a05      b546                   lda 0x46,x
0x00009a07      d57e                   cmp 0x7e,x
0x00009a09      f012                   beq 0x009a1d
0x00009a0b      b008                   bcs 0x009a15
0x00009a0d      b58a                   lda 0x8a,x
0x00009a0f      3008                   bmi 0x009a19
0x00009a11      a908                   lda #0x08
0x00009a13      d00a                   bne 0x009a1f
0x00009a15      b58a                   lda 0x8a,x
0x00009a17      30f8                   bmi 0x009a11
0x00009a19      a904                   lda #0x04
0x00009a1b      d002                   bne 0x009a1f
0x00009a1d      a900                   lda #0x00
0x00009a1f      9596                   sta 0x96,x
0x00009a21      b592                   lda 0x92,x
0x00009a23      f019                   beq 0x009a3e
0x00009a25      2418                   bit 0x18
0x00009a27      f015                   beq 0x009a3e
0x00009a29      b596                   lda 0x96,x
0x00009a2b      f009                   beq 0x009a36
0x00009a2d      2418                   bit 0x18
0x00009a2f      f005                   beq 0x009a36
0x00009a31      ad1bd4                 lda sym.SID_RANDOM
0x00009a34      3004                   bmi 0x009a3a
0x00009a36      b592                   lda 0x92,x
0x00009a38      d02a                   bne 0x009a64
0x00009a3a      b596                   lda 0x96,x
0x00009a3c      d026                   bne 0x009a64
0x00009a3e      b596                   lda 0x96,x
0x00009a40      2418                   bit 0x18
0x00009a42      d0f6                   bne 0x009a3a
0x00009a44      ad1bd4                 lda sym.SID_RANDOM
0x00009a47      2518                   and 0x18
0x00009a49      d002                   bne 0x009a4d
0x00009a4b      a518                   lda 0x18
0x00009a4d      4a                     lsr a
0x00009a4e      9004                   bcc 0x009a54
0x00009a50      a901                   lda #0x01
0x00009a52      d010                   bne 0x009a64
0x00009a54      4a                     lsr a
0x00009a55      9004                   bcc 0x009a5b
0x00009a57      a902                   lda #0x02
0x00009a59      d009                   bne 0x009a64
0x00009a5b      4a                     lsr a
0x00009a5c      9004                   bcc 0x009a62
0x00009a5e      a904                   lda #0x04
0x00009a60      d002                   bne 0x009a64
0x00009a62      a908                   lda #0x08
0x00009a64      954b                   sta 0x4b,x
0x00009a66      b54b                   lda 0x4b,x
0x00009a68      60                     rts
(fcn) fcn.sprite_direction_compare_2 167
0x00009a69      b541                   lda 0x41,x
0x00009a6b      c545                   cmp 0x45
0x00009a6d      f007                   beq 0x009a76
0x00009a6f      b546                   lda 0x46,x
0x00009a71      c54a                   cmp 0x4a
0x00009a73      f046                   beq 0x009abb
0x00009a75      60                     rts
0x00009a76      a009                   ldy #0x09
0x00009a78      b9d39b                 lda 0x9bd3,y
0x00009a7b      c545                   cmp 0x45
0x00009a7d      f004                   beq 0x009a83
0x00009a7f      88                     dey
0x00009a80      10f6                   bpl 0x009a78
0x00009a82      60                     rts
0x00009a83      b546                   lda 0x46,x
0x00009a85      c54a                   cmp 0x4a
0x00009a87      b019                   bcs 0x009aa2
0x00009a89      b54b                   lda 0x4b,x                     ; read direction
0x00009a8b      c908                   cmp #0x08                      ; compare to right
0x00009a8d      d0f3                   bne 0x009a82
0x00009a8f      b9089c                 lda 0x9c08,y
0x00009a92      c9ff                   cmp #0xff
0x00009a94      f069                   beq 0x009aff
0x00009a96      d546                   cmp 0x46,x
0x00009a98      b003                   bcs 0x009a9d
0x00009a9a      c8                     iny
0x00009a9b      d0f2                   bne 0x009a8f
0x00009a9d      c54a                   cmp 0x4a
0x00009a9f      b05e                   bcs 0x009aff
0x00009aa1      60                     rts
0x00009aa2      b54b                   lda 0x4b,x
0x00009aa4      c904                   cmp #0x04
0x00009aa6      d0da                   bne 0x009a82
0x00009aa8      b9089c                 lda 0x9c08,y
0x00009aab      c9ff                   cmp #0xff
0x00009aad      f050                   beq 0x009aff
0x00009aaf      c54a                   cmp 0x4a
0x00009ab1      b003                   bcs 0x009ab6
0x00009ab3      c8                     iny
0x00009ab4      d0f2                   bne 0x009aa8
0x00009ab6      d546                   cmp 0x46,x
0x00009ab8      b045                   bcs 0x009aff
0x00009aba      60                     rts
0x00009abb      a009                   ldy #0x09
0x00009abd      b9dd9b                 lda sym.3a,y
0x00009ac0      c54a                   cmp 0x4a
0x00009ac2      f004                   beq 0x009ac8
0x00009ac4      88                     dey
0x00009ac5      10f6                   bpl 0x009abd
0x00009ac7      60                     rts
0x00009ac8      b541                   lda 0x41,x
0x00009aca      c545                   cmp 0x45
0x00009acc      9019                   bcc 0x009ae7
0x00009ace      b54b                   lda 0x4b,x                     ; sprite direction
0x00009ad0      c901                   cmp #0x01                      ; compare to up
0x00009ad2      d0f3                   bne 0x009ac7
0x00009ad4      b9289c                 lda 0x9c28,y
0x00009ad7      c9ff                   cmp #0xff
0x00009ad9      f024                   beq 0x009aff
0x00009adb      c545                   cmp 0x45
0x00009add      b003                   bcs 0x009ae2
0x00009adf      c8                     iny
0x00009ae0      d0f2                   bne 0x009ad4
0x00009ae2      d541                   cmp 0x41,x
0x00009ae4      b019                   bcs 0x009aff
0x00009ae6      60                     rts
0x00009ae7      b54b                   lda 0x4b,x                     ; sprite direction
0x00009ae9      c902                   cmp #0x02                      ; compare to down
0x00009aeb      d0da                   bne 0x009ac7
0x00009aed      b9289c                 lda 0x9c28,y
0x00009af0      c9ff                   cmp #0xff
0x00009af2      f00b                   beq 0x009aff
0x00009af4      d541                   cmp 0x41,x
0x00009af6      b003                   bcs 0x009afb
0x00009af8      c8                     iny
0x00009af9      d0f2                   bne 0x009aed
0x00009afb      c545                   cmp 0x45
0x00009afd      9010                   bcc 0x009b0f
0x00009aff      e002                   cpx #0x02
0x00009b01      d004                   bne 0x009b07
0x00009b03      a5a2                   lda 0xa2                       ; read jiffy
0x00009b05      3008                   bmi 0x009b0f
0x00009b07      a902                   lda #0x02
0x00009b09      958a                   sta 0x8a,x
0x00009b0b      a9a0                   lda #0xa0
0x00009b0d      8569                   sta 0x69
0x00009b0f      60                     rts                            ; code segment end?
;-- sym.sprite_bitmaps:
0x00009b10      38                     sec
0x00009b11      7cd6d6                 nop 0xd6d6,x
0x00009b14      d6fe                   dec 0xfe,x
0x00009b16      fefefe                 inc 0xfefe,x
0x00009b19      fe387c                 inc 0x7c38,x
0x00009b1c      fefefe                 inc 0xfefe,x
0x00009b1f      fed6d6                 inc 0xd6d6,x
0x00009b22      d6fe                   dec 0xfe,x
0x00009b24      38                     sec
0x00009b25      7cfefe                 nop 0xfefe,x
0x00009b28      aeaeae                 ldx 0xaeae
0x00009b2b      fefefe                 inc 0xfefe,x
0x00009b2e      38                     sec
0x00009b2f      7cfefe                 nop 0xfefe,x
0x00009b32      ea                     nop
0x00009b33      ea                     nop
0x00009b34      ea                     nop
0x00009b35      fefefe                 inc 0xfefe,x
0x00009b38      38                     sec
0x00009b39      7cfed6                 nop 0xd6fe,x
0x00009b3c      d6d6                   dec 0xd6,x
0x00009b3e      fed6aa                 inc 0xaad6,x
0x00009b41      fe0000                 inc 0x0000,x
0x00009b44      00                     brk
0x00009b45      28                     plp
0x00009b46      28                     plp
0x00009b47      28                     plp
0x00009b48      00                     brk
0x00009b49      00                     brk
0x00009b4a      00                     brk
0x00009b4b      00                     brk
0x00009b4c      38                     sec
0x00009b4d      7cfefe                 nop 0xfefe,x
0x00009b50      fefefe                 inc 0xfefe,x
0x00009b53      fe7c38                 inc 0x387c,x
0x00009b56      38                     sec
0x00009b57      7cfef8                 nop 0xf8fe,x
0x00009b5a      e0e0                   cpx #0xe0
0x00009b5c      f8                     sed
0x00009b5d      fe7c38                 inc 0x387c,x
0x00009b60      38                     sec
0x00009b61      7cf8f0                 nop 0xf0f8,x
0x00009b64      e0e0                   cpx #0xe0
0x00009b66      f0f8                   beq 0x009b60
0x00009b68      7c3838                 nop 0x3838,x
0x00009b6b      7cfe3e                 nop 0x3efe,x
0x00009b6e      0e0e3e                 asl 0x3e0e
0x00009b71      fe7c38                 inc 0x387c,x
0x00009b74      38                     sec
0x00009b75      7c3e1e                 nop 0x1e3e,x
0x00009b78      0e0e1e                 asl 0x1e0e
0x00009b7b      3e7c38                 rol 0x387c,x
0x00009b7e      00                     brk
0x00009b7f      44c6                   nop 0xc6
0x00009b81      c6ee                   dec 0xee
0x00009b83      eefefe                 inc 0xfefe
0x00009b86      7c3800                 nop 0x0038,x
0x00009b89      00                     brk
0x00009b8a      82c6                   nop #0xc6
0x00009b8c      eeeefe                 inc 0xfeee
0x00009b8f      fe7c38                 inc 0x387c,x
0x00009b92      38                     sec
0x00009b93      7cfefe                 nop 0xfefe,x
0x00009b96      eeeec6                 inc 0xc6ee
0x00009b99      c644                   dec 0x44
0x00009b9b      00                     brk
0x00009b9c      38                     sec
0x00009b9d      7cfefe                 nop 0xfefe,x
0x00009ba0      eeeec6                 inc 0xc6ee
0x00009ba3      8200                   nop #0x00
0x00009ba5      00                     brk
0x00009ba6      0a                     asl a
0x00009ba7      00                     brk
0x00009ba8      8200                   nop #0x00
0x00009baa      c682                   dec 0x82
0x00009bac      00                     brk
0x00009bad      7c3810                 nop 0x1038,x
0x00009bb0      7c3838                 nop 0x3838,x
0x00009bb3      1010                   bpl 0x009bc5
;-- sym.pac_man_bitmap_ptrs:
0x00009bb5      4c9b56                 jmp 0x569b
0x00009bb8      9b6a9b                 shs 0x9b6a,y
0x00009bbb      7e9b92                 ror 0x929b,x
0x00009bbe  ~   9be306                 shs 0x06e3,y
;-- sym.pac_man_bitmap_ptrs.end:
0x00009bbf      e306                   isb (0x06,x)
0x00009bc1      02                     hlt
0x00009bc2      a67a                   ldx 0x7a
0x00009bc4      6474                   nop 0x74
0x00009bc6      7474                   nop 0x74,x
0x00009bc8      a47c                   ldy 0x7c
0x00009bca      7c7088                 nop 0x8870,x
0x00009bcd      7c0402                 nop 0x0204,x
0x00009bd0      0101                   ora (0x01,x)
0x00009bd2      042c                   nop 0x2c
0x00009bd4      4454                   nop 0x54
0x00009bd6      6474                   nop 0x74
0x00009bd8      8494                   sty 0x94
0x00009bda      a4b4                   ldy 0xb4
0x00009bdc  ~   c43a                   cpy 0x3a
;-- sym.3a:
0x00009bdd      3a                     nop
0x00009bde      4652                   lsr 0x52
0x00009be0      62                     hlt
0x00009be1      7682                   ror 0x82,x
0x00009be3      96a6                   stx 0xa6,y
0x00009be5      b2                     hlt
0x00009be6      be0e4c                 ldx 0x4c0e,y
0x00009be9      18                     clc
0x00009bea      4c224c                 jmp 0x4c22
0x00009bed      2c4c36                 bit 0x364c
0x00009bf0      4c404c                 jmp 0x4c40
0x00009bf3      4a                     lsr a
0x00009bf4      4c544c                 jmp 0x4c54
0x00009bf7      5e4c68                 lsr 0x684c,x
0x00009bfa      4c7cff                 jmp 0xff7c
0x00009bfd      58                     cli
0x00009bfe      7c9eff                 nop 0xff9e,x
0x00009c01      58                     cli
0x00009c02      9eff3c                 shx 0x3cff,y
0x00009c05      acffff                 ldy 0xffff
0x00009c08      00                     brk
0x00009c09      0c0206                 nop 0x0602
0x00009c0c      00                     brk
0x00009c0d      0600                   asl 0x00
0x00009c0f      0902                   ora #0x02
0x00009c11      0c6484                 nop 0x8464
0x00009c14      ff384c                 isb 0x4c38,x
0x00009c17      6484                   nop 0x84
0x00009c19      9cbcff                 shy 0xffbc,x
0x00009c1c      3cff38                 nop 0x38ff,x
0x00009c1f      5c9cbc                 nop 0xbc9c,x
0x00009c22      ff4c74                 isb 0x744c,x
0x00009c25      8cacff                 sty 0xffac
0x00009c28      00                     brk
0x00009c29      030a                   slo (0x0a,x)
0x00009c2b      0c1111                 nop 0x1111
0x00009c2e      0c0a03                 nop 0x030a
0x00009c31      00                     brk
;-- sym.ghost_colors:
0x00009c32      02                     hlt
0x00009c33      0a                     asl a
0x00009c34      0508                   ora 0x08
0x00009c36      0709                   slo 0x09
0x00009c38      08                     php
0x00009c39      0f0f0a                 slo 0x0a0f
0x00009c3c      0f0d90                 slo 0x900d
0x00009c3f      60                     rts
0x00009c40      3004                   bmi 0x009c46
0x00009c42      00                     brk
0x00009c43      00                     brk
0x00009c44      ffc080                 isb 0x80c0,x
0x00009c47      40                     rti
0x00009c48      00                     brk
0x00009c49      c000                   cpy #0x00
0x00009c4b      00                     brk
0x00009c4c      00                     brk
0x00009c4d      c000                   cpy #0x00
0x00009c4f      00                     brk
0x00009c50      00                     brk
0x00009c51      40                     rti
0x00009c52      00                     brk
0x00009c53      00                     brk
0x00009c54      00                     brk
0x00009c55      00                     brk
0x00009c56      00                     brk
0x00009c57      00                     brk
0x00009c58      92                     hlt
0x00009c59      5400                   nop 0x00,x
0x00009c5b      c600                   dec 0x00
0x00009c5d      5492                   nop 0x92,x
0x00009c5f      00                     brk
0x00009c60      00                     brk
0x00009c61      00                     brk
0x00009c62      00                     brk
0x00009c63      c629                   dec 0x29
0x00009c65      2929                   and #0x29
0x00009c67      2929                   and #0x29
0x00009c69      c600                   dec 0x00
0x00009c6b      00                     brk
0x00009c6c      00                     brk
0x00009c6d      00                     brk
0x00009c6e      00                     brk
0x00009c6f      38                     sec
0x00009c70      4505                   eor 0x05
0x00009c72      192141                 ora 0x4121,y
0x00009c75      7c0000                 nop 0x0000,x
0x00009c78      00                     brk
0x00009c79      00                     brk
0x00009c7a      00                     brk
0x00009c7b      08                     php
0x00009c7c      192949                 ora 0x4929,y
0x00009c7f      7d0908                 adc 0x0809,x
0x00009c82      00                     brk
0x00009c83      00                     brk
0x00009c84      00                     brk
0x00009c85      00                     brk
0x00009c86      00                     brk
0x00009c87      38                     sec
0x00009c88      4545                   eor 0x45
0x00009c8a      394545                 and 0x4545,y
0x00009c8d      38                     sec
0x00009c8e      00                     brk
0x00009c8f      00                     brk
0x00009c90      00                     brk
0x00009c91      00                     brk
0x00009c92      00                     brk
0x00009c93      8c91a1                 sty 0xa191
0x00009c96      b9a5a5                 lda 0xa5a5,y
0x00009c99      98                     tya
0x00009c9a      00                     brk
0x00009c9b      00                     brk
0x00009c9c      0c0808                 nop 0x0808
0x00009c9f      2100                   and (0x00,x)
0x00009ca1      190015                 ora 0x1500,y
0x00009ca4      0c2119                 nop 0x1921
0x00009ca7      08                     php
0x00009ca8      00                     brk
0x00009ca9      1515                   ora 0x15,x
0x00009cab      00                     brk
0x00009cac      0d0808                 ora 0x0808
0x00009caf      2300                   rla (0x00,x)
0x00009cb1      1a                     nop
0x00009cb2      00                     brk
0x00009cb3      160d                   asl 0x0d,x
0x00009cb5      231a                   rla (0x1a,x)
0x00009cb7      08                     php
0x00009cb8      00                     brk
0x00009cb9      1616                   asl 0x16,x
0x00009cbb      00                     brk
0x00009cbc      0c0808                 nop 0x0808
0x00009cbf      2100                   and (0x00,x)
0x00009cc1      190015                 ora 0x1500,y
0x00009cc4      0c2119                 nop 0x1921
0x00009cc7      08                     php
0x00009cc8      00                     brk
0x00009cc9      1515                   ora 0x15,x
0x00009ccb      00                     brk
0x00009ccc      0c1516                 nop 0x1615
0x00009ccf      1700                   slo 0x00,x
0x00009cd1      1719                   slo 0x19,x
0x00009cd3      1a                     nop
0x00009cd4      00                     brk
0x00009cd5      1a                     nop
0x00009cd6      1c1d00                 nop 0x001d,x
0x00009cd9      2121                   and (0x21,x)
0x00009cdb      00                     brk
0x00009cdc      8f6161                 sax 0x6161
0x00009cdf      8700                   sax 0x00
0x00009ce1      1e001f                 asl 0x1f00,x
0x00009ce4      8f871e                 sax 0x1e87
0x00009ce7      6100                   adc (0x00,x)
0x00009ce9      1f1f00                 slo 0x001f,x
0x00009cec      4ee1e1                 lsr 0xe1e1
0x00009cef      8600                   stx 0x00
0x00009cf1      9c0060                 shy 0x6000,x
0x00009cf4      4e869c                 lsr 0x9c86
0x00009cf7      e100                   sbc (0x00,x)
0x00009cf9      60                     rts
0x00009cfa      60                     rts
0x00009cfb      00                     brk
0x00009cfc      8f6161                 sax 0x6161
0x00009cff      8700                   sax 0x00
0x00009d01      1e001f                 asl 0x1f00,x
0x00009d04      8f871e                 sax 0x1e87
0x00009d07      6100                   adc (0x00,x)
0x00009d09      1f1f00                 slo 0x001f,x
0x00009d0c      8f1f60                 sax 0x601f
0x00009d0f      b500                   lda 0x00,x
0x00009d11      b51e                   lda 0x1e,x
0x00009d13      9c009c                 shy 0x9c00,x
0x00009d16      31df                   and (0xdf),y
0x00009d18      00                     brk
0x00009d19      8787                   sax 0x87
0x00009d1b      00                     brk
0x00009d1c      6b9c                   arr #0x9c
0x00009d1e      779c                   rra 0x9c,x
0x00009d20      839c                   sax (0x9c,x)
0x00009d22      8f9c19                 sax 0x199c
0x00009d25      1a                     nop
0x00009d26      1c1d20                 nop 0x201d,x
0x00009d29      2300                   rla (0x00,x)
0x00009d2b      231d                   rla (0x1d,x)
0x00009d2d      1a                     nop
0x00009d2e      1715                   slo 0x15,x
0x00009d30      12                     hlt
0x00009d31      00                     brk
;-- sym.4c_ptrs:
0x00009d32      864c                   stx 0x4c
0x00009d34      934c9b                 sha 0x9b4c,x
0x00009d37      4ca34c                 jmp 0x4ca3
0x00009d3a      96a4                   stx 0xa4,y
0x00009d3c      62                     hlt
0x00009d3d      7482                   nop 0x82,x
0x00009d3f      6462                   nop 0x62
0x00009d41      6462                   nop 0x62
0x00009d43      9452                   sty 0x52,x
0x00009d45      7496                   nop 0x96,x
0x00009d47      94a6                   sty 0xa6,x
0x00009d49      7496                   nop 0x96,x
0x00009d4b      5452                   nop 0x52,x
0x00009d4d      b4be                   ldy 0xbe,x
0x00009d4f      c482                   cpy 0x82
0x00009d51      4452                   nop 0x52
0x00009d53      a4b2                   ldy 0xb2
0x00009d55      b482                   ldy 0x82,x
0x00009d57      4452                   nop 0x52
0x00009d59      44be                   nop 0xbe
0x00009d5b      2c3a2c                 bit 0x2c3a
0x00009d5e      bec43a                 ldx 0x3ac4,y
0x00009d61      c400                   cpy 0x00
0x00009d63      0b16                   anc #0x16
0x00009d65      212c                   and (0x2c,x)
0x00009d67      333a                   rla (0x3a),y
0x00009d69      4148                   eor (0x48,x)
0x00009d6b      5360                   sre (0x60),y
0x00009d6d      6d8099                 adc 0x9980
0x00009d70      b6c9                   ldx 0xc9,y
;-- sym.level_symbols:
0x00009d72      3a                     nop
0x00009d73      3c3e3e                 nop 0x3e3e,x
0x00009d76      40                     rti
0x00009d77      40                     rti
0x00009d78      42                     hlt
0x00009d79      42                     hlt
0x00009d7a      4646                   lsr 0x46
0x00009d7c      4a                     lsr a
0x00009d7d      4a                     lsr a
0x00009d7e      4c4c4c                 jmp 0x4c4c
0x00009d81      4c4c4c                 jmp 0x4c4c
0x00009d84      4c4a4a                 jmp 0x4a4a
0x00009d87      48                     pha
0x00009d88      48                     pha
0x00009d89      4444                   nop 0x44
0x00009d8b      40                     rti
0x00009d8c      40                     rti
0x00009d8d      3e3e3c                 rol 0x3c3e,x
0x00009d90      3a                     nop
0x00009d91      00                     brk
0x00009d92      4e4f5f                 lsr 0x5f4f
0x00009d95      60                     rts
0x00009d96      00                     brk
0x00009d97      5051                   bvc 0x009dea
0x00009d99      5f6000                 sre 0x0060,x
0x00009d9c      52                     hlt
0x00009d9d      535f                   sre (0x5f),y
0x00009d9f      60                     rts
0x00009da0      00                     brk
0x00009da1      5455                   nop 0x55,x
0x00009da3      5f6056                 sre 0x5660,x
0x00009da6      575e                   sre 0x5e,x
0x00009da8      5f6058                 sre 0x5860,x
0x00009dab      595e5f                 eor 0x5f5e,y
0x00009dae      60                     rts
0x00009daf      5a                     nop
0x00009db0      5b5e5f                 sre 0x5f5e,y
0x00009db3      60                     rts
0x00009db4      5c5d5e                 nop 0x5e5d,x
0x00009db7      5f6000                 sre 0x0060,x
0x00009dba      050a                   ora 0x0a
0x00009dbc      0a                     asl a
0x00009dbd      0f0f14                 slo 0x140f
0x00009dc0      1419                   nop 0x19,x
0x00009dc2      191e1e                 ora 0x1e1e,y
0x00009dc5  ~   2300                   rla (0x00,x)
;-- sym.rom_data_arr_count_thing:
0x00009dc6      00                     brk
0x00009dc7      0102                   ora (0x02,x)
0x00009dc9      0304                   slo (0x04,x)
0x00009dcb      0508                   ora 0x08
0x00009dcd      0a                     asl a
0x00009dce      0d0f10                 ora 0x100f
0x00009dd1      1114                   ora (0x14),y
0x00009dd3      1520                   ora 0x20,x
0x00009dd5      22                     hlt
0x00009dd6      28                     plp
0x00009dd7      2a                     rol a
0x00009dd8      2b2e                   anc #0x2e
0x00009dda      3033                   bmi 0x009e0f
0x00009ddc      3a                     nop
0x00009ddd      3c3e40                 nop 0x403e,x
0x00009de0      4150                   eor (0x50,x)
0x00009de2      5154                   eor (0x54),y
0x00009de4      5580                   eor 0x80,x
0x00009de6      82a0                   nop #0xa0
0x00009de8      a2a8                   ldx #0xa8
0x00009dea      b0c0                   bcs 0x009dac
0x00009dec      c3cc                   dcp (0xcc,x)
0x00009dee      cfe0e8                 dcp 0xe8e0
0x00009df1      f0f3                   beq 0x009de6
0x00009df3      fcff3f                 nop 0x3fff,x
0x00009df6      0cfefb                 nop 0xfbfe
0x00009df9      c1f8                   cmp (0xf8,x)
0x00009dfb      1f0e8f                 slo 0x8f0e,x
0x00009dfe      df8170                 dcp 0x7081,x
0x00009e01      9f8707                 sha 0x0787,y
0x00009e04      bc0808                 ldy 0x0808,x
0x00009e07      08                     php
0x00009e08      0c1014                 nop 0x1410
0x00009e0b      1400                   nop 0x00,x
0x00009e0d      0408                   nop 0x08
0x00009e0f      08                     php
0x00009e10      0c1010                 nop 0x1010
0x00009e13      a8                     tay
0x00009e14      a9a7                   lda #0xa7
0x00009e16      a8                     tay
0x00009e17      80b3                   nop #0xb3
0x00009e19      a3af                   lax (0xaf,x)
0x00009e1b      b2                     hlt
0x00009e1c      a588                   lda 0x88
;-- str.copyright_atari_1983:
0x00009e1e      a389                   lax (0x89,x)
0x00009e20      80a1                   nop #0xa1
0x00009e22      b4a1                   ldy 0xa1,x
0x00009e24      b2                     hlt
0x00009e25      a980                   lda #0x80
0x00009e27      9199                   sta (0x99),y
0x00009e29      98                     tya
0x00009e2a  ~   93b0b2                 sha 0xb2b0,x
;-- str.press_f1_to:
0x00009e2b      b0b2                   bcs 0x009ddf
0x00009e2d      a5b3                   lda 0xb3
0x00009e2f      b380                   lax (0x80),y
0x00009e31      a691                   ldx 0x91
0x00009e33      80b4                   nop #0xb4
0x00009e35  ~   af80b0                 lax 0xb080
;-- str.press_f3_for:
0x00009e37      b0b2                   bcs 0x009deb
0x00009e39      a5b3                   lda 0xb3
0x00009e3b      b380                   lax (0x80),y
0x00009e3d      a693                   ldx 0x93
0x00009e3f      80a6                   nop #0xa6
0x00009e41  ~   afb2b0                 lax 0xb0b2
;-- str.press_f5_to:
0x00009e43      b0b2                   bcs 0x009df7
0x00009e45      a5b3                   lda 0xb3
0x00009e47      b380                   lax (0x80),y
0x00009e49      a695                   ldx 0x95
0x00009e4b      80b4                   nop #0xb4
0x00009e4d  ~   af80b0                 lax 0xb080
;-- str.play_game:
0x00009e4f      b0ac                   bcs 0x009dfd
0x00009e51      a1b9                   lda (0xb9,x)
0x00009e53      80a7                   nop #0xa7
0x00009e55      a1ad                   lda (0xad,x)
0x00009e57  ~   a5b0                   lda 0xb0
;-- str.player_game:
0x00009e58      b0ac                   bcs 0x009e06
0x00009e5a      a1b9                   lda (0xb9,x)
0x00009e5c      a5b2                   lda 0xb2
0x00009e5e      80a7                   nop #0xa7
0x00009e60      a1ad                   lda (0xad,x)
0x00009e62  ~   a5a3                   lda 0xa3
;-- str.change_difficulty:
0x00009e63      a3a8                   lax (0xa8,x)
0x00009e65      a1ae                   lda (0xae,x)
0x00009e67      a7a5                   lax 0xa5
0x00009e69      80a4                   nop #0xa4
0x00009e6b      a9a6                   lda #0xa6
0x00009e6d      a6a9                   ldx 0xa9
0x00009e6f      a3b5                   lax (0xb5,x)
0x00009e71      acb4b9                 ldy 0xb9b4
0x00009e74      3a                     nop
0x00009e75      3c3e3e                 nop 0x3e3e,x
0x00009e78      40                     rti
0x00009e79      40                     rti
0x00009e7a      4444                   nop 0x44
0x00009e7c      48                     pha
0x00009e7d      48                     pha
0x00009e7e      4a                     lsr a
0x00009e7f      4a                     lsr a
0x00009e80      4c4c40                 jmp 0x404c
0x00009e83      31ae                   and (0xae),y
0x00009e85      32                     hlt
0x00009e86      2e801f                 rol 0x1f80
0x00009e89      2573                   and 0x73
0x00009e8b      2640                   rol 0x40
0x00009e8d      19696b                 ora 0x6b69,y
0x00009e90      3440                   nop 0x40,x
0x00009e92      0309                   slo (0x09,x)
0x00009e94      756f                   adc 0x6f,x
0x00009e96      40                     rti
0x00009e97      2934                   and #0x34
0x00009e99      2d342b                 and 0x2b34
0x00009e9c      29c0                   and #0xc0
0x00009e9e      8018                   nop #0x18
0x00009ea0      40                     rti
0x00009ea1      0630                   asl 0x30
0x00009ea3      3689                   rol 0x89,x
0x00009ea5      8001                   nop #0x01
0x00009ea7      033d                   slo (0x3d,x)
0x00009ea9      3738                   rla 0x38,x
0x00009eab      40                     rti
0x00009eac      df1f39                 dcp 0x391f,x
0x00009eaf      40                     rti
0x00009eb0      0e7a74                 asl 0x747a
0x00009eb3      2d4006                 and 0x0640
0x00009eb6      3036                   bmi 0x009eee
0x00009eb8      8940                   nop #0x40
0x00009eba      f53b                   sbc 0x3b,x
0x00009ebc      38                     sec
0x00009ebd      6e31f4                 ror 0xf431
0x00009ec0      00                     brk
0x00009ec1      263c                   rol 0x3c
0x00009ec3      3d4975                 and 0x7549,x
0x00009ec6      00                     brk
0x00009ec7      343e                   nop 0x3e,x
0x00009ec9      2d716e                 and 0x6e71
0x00009ecc      00                     brk
0x00009ecd      af7509                 lax 0x0975
0x00009ed0      0300                   slo (0x00,x)
0x00009ed2      2529                   and 0x29
0x00009ed4      2b34                   anc #0x34
0x00009ed6      2d3429                 and 0x2934
0x00009ed9      00                     brk
0x00009eda      58                     cli
0x00009edb      c040                   cpy #0x40
0x00009edd      c989                   cmp #0x89
0x00009edf      00                     brk
0x00009ee0      eeae00                 inc 0x00ae
0x00009ee3      ff8183                 isb 0x8381,x
0x00009ee6      8387                   sax (0x87,x)
0x00009ee8      878f                   sax 0x8f
0x00009eea      8f00fc                 sax 0xfc00
0x00009eed      defeff                 dec 0xfffe,x
0x00009ef0      ffffff                 isb 0xffff,x
0x00009ef3      00                     brk
0x00009ef4      0f0f0f                 slo 0x0f0f
0x00009ef7      0f0f8f                 slo 0x8f0f
0x00009efa      8f00ff                 sax 0xff00
0x00009efd      ffffff                 isb 0xffff,x
0x00009f00      ffffff                 isb 0xffff,x
0x00009f03      00                     brk
0x00009f04      0102                   ora (0x02,x)
0x00009f06      0408                   nop 0x08
0x00009f08      10fe                   bpl 0x009f08
0x00009f0a      fdfbf7                 sbc 0xf7fb,x
0x00009f0d      ef6778                 isb 0x7867
0x00009f10      88                     dey
0x00009f11      999aab                 sta 0xab9a,y
0x00009f14      abac                   lxa #0xac
0x00009f16      ec6ace                 cpx 0xce6a
0x00009f19      c6bc                   dec 0xbc
0x00009f1b      feddef                 inc 0xefdd,x
0x00009f1e      c79c                   dcp 0x9c
0x00009f20      796a5b                 adc 0x5b6a,y
0x00009f23      c500                   cmp 0x00
0x00009f25      3a                     nop
0x00009f26      dd6300                 cmp 0x0063,x
0x00009f29      ccf700                 cpy 0x00f7
0x00009f2c      bfcc00                 lax 0x00cc,y
0x00009f2f      3bcc73                 rla 0x73cc,y
0x00009f32      00                     brk
0x00009f33      acfd6a                 ldy 0x6afd
0x00009f36      dfc696                 dcp 0x96c6,x
0x00009f39      bedde7                 ldx 0xe7dd,y
0x00009f3c      a5ad                   lda 0xad
0x00009f3e      596a59                 eor 0x596a,y
0x00009f41      d69c                   dec 0x9c,x
0x00009f43      ccddcc                 cpy 0xccdd
0x00009f46      c5bb                   cmp 0xbb
0x00009f48      bbbbbb                 lae 0xbbbb,y
0x00009f4b      7bb777                 rra 0x77b7,y
0x00009f4e      b717                   lax 0x17,y
0x00009f50      1144                   ora (0x44),y
0x00009f52      2411                   bit 0x11
0x00009f54      18                     clc
0x00009f55      88                     dey
0x00009f56      88                     dey
0x00009f57      f442                   nop 0x42,x
0x00009f59      4111                   eor (0x11,x)
0x00009f5b      f8                     sed
0x00009f5c      8222                   nop #0x22
0x00009f5e      82f8                   nop #0xf8
0x00009f60      8224                   nop #0x24
0x00009f62      4424                   nop 0x24
0x00009f64      2f2424                 rla 0x2424
0x00009f67      1418                   nop 0x18,x
0x00009f69      88                     dey
0x00009f6a      0188                   ora (0x88,x)
0x00009f6c      8224                   nop #0x24
0x00009f6e      4410                   nop 0x10
0x00009f70      4422                   nop 0x22
0x00009f72      88                     dey
0x00009f73      8114                   sta (0x14,x)
0x00009f75      08                     php
0x00009f76      1414                   nop 0x14,x
0x00009f78      22                     hlt
0x00009f79      28                     plp
0x00009f7a      1082                   bpl 0x009efe
0x00009f7c      4418                   nop 0x18
0x00009f7e      08                     php
0x00009f7f      22                     hlt
0x00009f80      4110                   eor (0x10,x)
0x00009f82      42                     hlt
0x00009f83      88                     dey
0x00009f84      1404                   nop 0x04,x
0x00009f86      22                     hlt
0x00009f87      8110                   sta (0x10,x)
0x00009f89      18                     clc
0x00009f8a      22                     hlt
0x00009f8b      2414                   bit 0x14
0x00009f8d      18                     clc
0x00009f8e      0182                   ora (0x82,x)
0x00009f90      8244                   nop #0x44
0x00009f92      4418                   nop 0x18
0x00009f94      8014                   nop #0x14
0x00009f96      4142                   eor (0x42,x)
0x00009f98      42                     hlt
0x00009f99      88                     dey
0x00009f9a      88                     dey
0x00009f9b      0188                   ora (0x88,x)
0x00009f9d      2424                   bit 0x24
0x00009f9f      2442                   bit 0x42
0x00009fa1      4111                   eor (0x11,x)
0x00009fa3      88                     dey
0x00009fa4      8014                   nop #0x14
0x00009fa6      42                     hlt
0x00009fa7      8242                   nop #0x42
0x00009fa9      88                     dey
0x00009faa      88                     dey
0x00009fab      1418                   nop 0x18,x
0x00009fad      1411                   nop 0x11,x
0x00009faf      42                     hlt
0x00009fb0      22                     hlt
0x00009fb1      0181                   ora (0x81,x)
0x00009fb3      4422                   nop 0x22
0x00009fb5      88                     dey
0x00009fb6      2444                   bit 0x44
0x00009fb8      4181                   eor (0x81,x)
0x00009fba      4181                   eor (0x81,x)
0x00009fbc      18                     clc
0x00009fbd      22                     hlt
0x00009fbe      22                     hlt
0x00009fbf      8082                   nop #0x82
0x00009fc1      42                     hlt
0x00009fc2      8224                   nop #0x24
0x00009fc4      4411                   nop 0x11
0x00009fc6      8141                   sta (0x41,x)
0x00009fc8      88                     dey
0x00009fc9      02                     hlt
0x00009fca      4418                   nop 0x18
0x00009fcc      8188                   sta (0x88,x)
0x00009fce      28                     plp
0x00009fcf      18                     clc
0x00009fd0      88                     dey
0x00009fd1      8244                   nop #0x44
0x00009fd3      42                     hlt
0x00009fd4      42                     hlt
0x00009fd5      4141                   eor (0x41,x)
0x00009fd7      40                     rti
0x00009fd8      0103                   ora (0x03,x)
0x00009fda      0505                   ora 0x05
0x00009fdc      0707                   slo 0x07
0x00009fde      1010                   bpl 0x009ff0
0x00009fe0      202030                 jsr 0x3020
0x00009fe3      3050                   bmi 0x00a035
0x00009fe5      3333                   rla (0x33),y
0x00009fe7      32                     hlt
0x00009fe8      32                     hlt
0x00009fe9      22                     hlt
0x00009fea      2322                   rla (0x22,x)
0x00009fec      22                     hlt
0x00009fed      22                     hlt
0x00009fee      2112                   and (0x12,x)
0x00009ff0      12                     hlt
0x00009ff1      0de070                 ora 0x70e0
0x00009ff4      00                     brk
0x00009ff5      b021                   bcs 0x00a018
0x00009ff7      08                     php
0x00009ff8      00                     brk
0x00009ff9      0457                   nop 0x57
0x00009ffb      4142                   eor (0x42,x)
0x00009ffd      58                     cli
0x00009ffe      9b4c                   shs 0x124c,y
